
rtarget:     file format elf64-x86-64


Disassembly of section .init:

0000000000400bc8 <_init>:
  400bc8:	48 83 ec 08          	sub    $0x8,%rsp
  400bcc:	48 8b 05 25 44 20 00 	mov    0x204425(%rip),%rax        # 604ff8 <__gmon_start__>
  400bd3:	48 85 c0             	test   %rax,%rax
  400bd6:	74 05                	je     400bdd <_init+0x15>
  400bd8:	e8 33 01 00 00       	callq  400d10 <__gmon_start__@plt>
  400bdd:	48 83 c4 08          	add    $0x8,%rsp
  400be1:	c3                   	retq   

Disassembly of section .plt:

0000000000400bf0 <.plt>:
  400bf0:	ff 35 12 44 20 00    	pushq  0x204412(%rip)        # 605008 <_GLOBAL_OFFSET_TABLE_+0x8>
  400bf6:	ff 25 14 44 20 00    	jmpq   *0x204414(%rip)        # 605010 <_GLOBAL_OFFSET_TABLE_+0x10>
  400bfc:	0f 1f 40 00          	nopl   0x0(%rax)

0000000000400c00 <strcasecmp@plt>:
  400c00:	ff 25 12 44 20 00    	jmpq   *0x204412(%rip)        # 605018 <strcasecmp@GLIBC_2.2.5>
  400c06:	68 00 00 00 00       	pushq  $0x0
  400c0b:	e9 e0 ff ff ff       	jmpq   400bf0 <.plt>

0000000000400c10 <__errno_location@plt>:
  400c10:	ff 25 0a 44 20 00    	jmpq   *0x20440a(%rip)        # 605020 <__errno_location@GLIBC_2.2.5>
  400c16:	68 01 00 00 00       	pushq  $0x1
  400c1b:	e9 d0 ff ff ff       	jmpq   400bf0 <.plt>

0000000000400c20 <srandom@plt>:
  400c20:	ff 25 02 44 20 00    	jmpq   *0x204402(%rip)        # 605028 <srandom@GLIBC_2.2.5>
  400c26:	68 02 00 00 00       	pushq  $0x2
  400c2b:	e9 c0 ff ff ff       	jmpq   400bf0 <.plt>

0000000000400c30 <strncmp@plt>:
  400c30:	ff 25 fa 43 20 00    	jmpq   *0x2043fa(%rip)        # 605030 <strncmp@GLIBC_2.2.5>
  400c36:	68 03 00 00 00       	pushq  $0x3
  400c3b:	e9 b0 ff ff ff       	jmpq   400bf0 <.plt>

0000000000400c40 <strcpy@plt>:
  400c40:	ff 25 f2 43 20 00    	jmpq   *0x2043f2(%rip)        # 605038 <strcpy@GLIBC_2.2.5>
  400c46:	68 04 00 00 00       	pushq  $0x4
  400c4b:	e9 a0 ff ff ff       	jmpq   400bf0 <.plt>

0000000000400c50 <puts@plt>:
  400c50:	ff 25 ea 43 20 00    	jmpq   *0x2043ea(%rip)        # 605040 <puts@GLIBC_2.2.5>
  400c56:	68 05 00 00 00       	pushq  $0x5
  400c5b:	e9 90 ff ff ff       	jmpq   400bf0 <.plt>

0000000000400c60 <write@plt>:
  400c60:	ff 25 e2 43 20 00    	jmpq   *0x2043e2(%rip)        # 605048 <write@GLIBC_2.2.5>
  400c66:	68 06 00 00 00       	pushq  $0x6
  400c6b:	e9 80 ff ff ff       	jmpq   400bf0 <.plt>

0000000000400c70 <mmap@plt>:
  400c70:	ff 25 da 43 20 00    	jmpq   *0x2043da(%rip)        # 605050 <mmap@GLIBC_2.2.5>
  400c76:	68 07 00 00 00       	pushq  $0x7
  400c7b:	e9 70 ff ff ff       	jmpq   400bf0 <.plt>

0000000000400c80 <printf@plt>:
  400c80:	ff 25 d2 43 20 00    	jmpq   *0x2043d2(%rip)        # 605058 <printf@GLIBC_2.2.5>
  400c86:	68 08 00 00 00       	pushq  $0x8
  400c8b:	e9 60 ff ff ff       	jmpq   400bf0 <.plt>

0000000000400c90 <memset@plt>:
  400c90:	ff 25 ca 43 20 00    	jmpq   *0x2043ca(%rip)        # 605060 <memset@GLIBC_2.2.5>
  400c96:	68 09 00 00 00       	pushq  $0x9
  400c9b:	e9 50 ff ff ff       	jmpq   400bf0 <.plt>

0000000000400ca0 <alarm@plt>:
  400ca0:	ff 25 c2 43 20 00    	jmpq   *0x2043c2(%rip)        # 605068 <alarm@GLIBC_2.2.5>
  400ca6:	68 0a 00 00 00       	pushq  $0xa
  400cab:	e9 40 ff ff ff       	jmpq   400bf0 <.plt>

0000000000400cb0 <close@plt>:
  400cb0:	ff 25 ba 43 20 00    	jmpq   *0x2043ba(%rip)        # 605070 <close@GLIBC_2.2.5>
  400cb6:	68 0b 00 00 00       	pushq  $0xb
  400cbb:	e9 30 ff ff ff       	jmpq   400bf0 <.plt>

0000000000400cc0 <read@plt>:
  400cc0:	ff 25 b2 43 20 00    	jmpq   *0x2043b2(%rip)        # 605078 <read@GLIBC_2.2.5>
  400cc6:	68 0c 00 00 00       	pushq  $0xc
  400ccb:	e9 20 ff ff ff       	jmpq   400bf0 <.plt>

0000000000400cd0 <__libc_start_main@plt>:
  400cd0:	ff 25 aa 43 20 00    	jmpq   *0x2043aa(%rip)        # 605080 <__libc_start_main@GLIBC_2.2.5>
  400cd6:	68 0d 00 00 00       	pushq  $0xd
  400cdb:	e9 10 ff ff ff       	jmpq   400bf0 <.plt>

0000000000400ce0 <signal@plt>:
  400ce0:	ff 25 a2 43 20 00    	jmpq   *0x2043a2(%rip)        # 605088 <signal@GLIBC_2.2.5>
  400ce6:	68 0e 00 00 00       	pushq  $0xe
  400ceb:	e9 00 ff ff ff       	jmpq   400bf0 <.plt>

0000000000400cf0 <gethostbyname@plt>:
  400cf0:	ff 25 9a 43 20 00    	jmpq   *0x20439a(%rip)        # 605090 <gethostbyname@GLIBC_2.2.5>
  400cf6:	68 0f 00 00 00       	pushq  $0xf
  400cfb:	e9 f0 fe ff ff       	jmpq   400bf0 <.plt>

0000000000400d00 <fprintf@plt>:
  400d00:	ff 25 92 43 20 00    	jmpq   *0x204392(%rip)        # 605098 <fprintf@GLIBC_2.2.5>
  400d06:	68 10 00 00 00       	pushq  $0x10
  400d0b:	e9 e0 fe ff ff       	jmpq   400bf0 <.plt>

0000000000400d10 <__gmon_start__@plt>:
  400d10:	ff 25 8a 43 20 00    	jmpq   *0x20438a(%rip)        # 6050a0 <__gmon_start__>
  400d16:	68 11 00 00 00       	pushq  $0x11
  400d1b:	e9 d0 fe ff ff       	jmpq   400bf0 <.plt>

0000000000400d20 <strtol@plt>:
  400d20:	ff 25 82 43 20 00    	jmpq   *0x204382(%rip)        # 6050a8 <strtol@GLIBC_2.2.5>
  400d26:	68 12 00 00 00       	pushq  $0x12
  400d2b:	e9 c0 fe ff ff       	jmpq   400bf0 <.plt>

0000000000400d30 <memcpy@plt>:
  400d30:	ff 25 7a 43 20 00    	jmpq   *0x20437a(%rip)        # 6050b0 <memcpy@GLIBC_2.14>
  400d36:	68 13 00 00 00       	pushq  $0x13
  400d3b:	e9 b0 fe ff ff       	jmpq   400bf0 <.plt>

0000000000400d40 <time@plt>:
  400d40:	ff 25 72 43 20 00    	jmpq   *0x204372(%rip)        # 6050b8 <time@GLIBC_2.2.5>
  400d46:	68 14 00 00 00       	pushq  $0x14
  400d4b:	e9 a0 fe ff ff       	jmpq   400bf0 <.plt>

0000000000400d50 <random@plt>:
  400d50:	ff 25 6a 43 20 00    	jmpq   *0x20436a(%rip)        # 6050c0 <random@GLIBC_2.2.5>
  400d56:	68 15 00 00 00       	pushq  $0x15
  400d5b:	e9 90 fe ff ff       	jmpq   400bf0 <.plt>

0000000000400d60 <_IO_getc@plt>:
  400d60:	ff 25 62 43 20 00    	jmpq   *0x204362(%rip)        # 6050c8 <_IO_getc@GLIBC_2.2.5>
  400d66:	68 16 00 00 00       	pushq  $0x16
  400d6b:	e9 80 fe ff ff       	jmpq   400bf0 <.plt>

0000000000400d70 <__isoc99_sscanf@plt>:
  400d70:	ff 25 5a 43 20 00    	jmpq   *0x20435a(%rip)        # 6050d0 <__isoc99_sscanf@GLIBC_2.7>
  400d76:	68 17 00 00 00       	pushq  $0x17
  400d7b:	e9 70 fe ff ff       	jmpq   400bf0 <.plt>

0000000000400d80 <munmap@plt>:
  400d80:	ff 25 52 43 20 00    	jmpq   *0x204352(%rip)        # 6050d8 <munmap@GLIBC_2.2.5>
  400d86:	68 18 00 00 00       	pushq  $0x18
  400d8b:	e9 60 fe ff ff       	jmpq   400bf0 <.plt>

0000000000400d90 <bcopy@plt>:
  400d90:	ff 25 4a 43 20 00    	jmpq   *0x20434a(%rip)        # 6050e0 <bcopy@GLIBC_2.2.5>
  400d96:	68 19 00 00 00       	pushq  $0x19
  400d9b:	e9 50 fe ff ff       	jmpq   400bf0 <.plt>

0000000000400da0 <fopen@plt>:
  400da0:	ff 25 42 43 20 00    	jmpq   *0x204342(%rip)        # 6050e8 <fopen@GLIBC_2.2.5>
  400da6:	68 1a 00 00 00       	pushq  $0x1a
  400dab:	e9 40 fe ff ff       	jmpq   400bf0 <.plt>

0000000000400db0 <getopt@plt>:
  400db0:	ff 25 3a 43 20 00    	jmpq   *0x20433a(%rip)        # 6050f0 <getopt@GLIBC_2.2.5>
  400db6:	68 1b 00 00 00       	pushq  $0x1b
  400dbb:	e9 30 fe ff ff       	jmpq   400bf0 <.plt>

0000000000400dc0 <strtoul@plt>:
  400dc0:	ff 25 32 43 20 00    	jmpq   *0x204332(%rip)        # 6050f8 <strtoul@GLIBC_2.2.5>
  400dc6:	68 1c 00 00 00       	pushq  $0x1c
  400dcb:	e9 20 fe ff ff       	jmpq   400bf0 <.plt>

0000000000400dd0 <gethostname@plt>:
  400dd0:	ff 25 2a 43 20 00    	jmpq   *0x20432a(%rip)        # 605100 <gethostname@GLIBC_2.2.5>
  400dd6:	68 1d 00 00 00       	pushq  $0x1d
  400ddb:	e9 10 fe ff ff       	jmpq   400bf0 <.plt>

0000000000400de0 <sprintf@plt>:
  400de0:	ff 25 22 43 20 00    	jmpq   *0x204322(%rip)        # 605108 <sprintf@GLIBC_2.2.5>
  400de6:	68 1e 00 00 00       	pushq  $0x1e
  400deb:	e9 00 fe ff ff       	jmpq   400bf0 <.plt>

0000000000400df0 <exit@plt>:
  400df0:	ff 25 1a 43 20 00    	jmpq   *0x20431a(%rip)        # 605110 <exit@GLIBC_2.2.5>
  400df6:	68 1f 00 00 00       	pushq  $0x1f
  400dfb:	e9 f0 fd ff ff       	jmpq   400bf0 <.plt>

0000000000400e00 <connect@plt>:
  400e00:	ff 25 12 43 20 00    	jmpq   *0x204312(%rip)        # 605118 <connect@GLIBC_2.2.5>
  400e06:	68 20 00 00 00       	pushq  $0x20
  400e0b:	e9 e0 fd ff ff       	jmpq   400bf0 <.plt>

0000000000400e10 <socket@plt>:
  400e10:	ff 25 0a 43 20 00    	jmpq   *0x20430a(%rip)        # 605120 <socket@GLIBC_2.2.5>
  400e16:	68 21 00 00 00       	pushq  $0x21
  400e1b:	e9 d0 fd ff ff       	jmpq   400bf0 <.plt>

Disassembly of section .text:

0000000000400e20 <_start>:
  400e20:	31 ed                	xor    %ebp,%ebp
  400e22:	49 89 d1             	mov    %rdx,%r9
  400e25:	5e                   	pop    %rsi
  400e26:	48 89 e2             	mov    %rsp,%rdx
  400e29:	48 83 e4 f0          	and    $0xfffffffffffffff0,%rsp
  400e2d:	50                   	push   %rax
  400e2e:	54                   	push   %rsp
  400e2f:	49 c7 c0 b0 2c 40 00 	mov    $0x402cb0,%r8
  400e36:	48 c7 c1 40 2c 40 00 	mov    $0x402c40,%rcx
  400e3d:	48 c7 c7 e0 10 40 00 	mov    $0x4010e0,%rdi
  400e44:	e8 87 fe ff ff       	callq  400cd0 <__libc_start_main@plt>
  400e49:	f4                   	hlt    
  400e4a:	66 0f 1f 44 00 00    	nopw   0x0(%rax,%rax,1)

0000000000400e50 <deregister_tm_clones>:
  400e50:	b8 b7 54 60 00       	mov    $0x6054b7,%eax
  400e55:	55                   	push   %rbp
  400e56:	48 2d b0 54 60 00    	sub    $0x6054b0,%rax
  400e5c:	48 83 f8 0e          	cmp    $0xe,%rax
  400e60:	48 89 e5             	mov    %rsp,%rbp
  400e63:	77 02                	ja     400e67 <deregister_tm_clones+0x17>
  400e65:	5d                   	pop    %rbp
  400e66:	c3                   	retq   
  400e67:	b8 00 00 00 00       	mov    $0x0,%eax
  400e6c:	48 85 c0             	test   %rax,%rax
  400e6f:	74 f4                	je     400e65 <deregister_tm_clones+0x15>
  400e71:	5d                   	pop    %rbp
  400e72:	bf b0 54 60 00       	mov    $0x6054b0,%edi
  400e77:	ff e0                	jmpq   *%rax
  400e79:	0f 1f 80 00 00 00 00 	nopl   0x0(%rax)

0000000000400e80 <register_tm_clones>:
  400e80:	b8 b0 54 60 00       	mov    $0x6054b0,%eax
  400e85:	55                   	push   %rbp
  400e86:	48 2d b0 54 60 00    	sub    $0x6054b0,%rax
  400e8c:	48 c1 f8 03          	sar    $0x3,%rax
  400e90:	48 89 e5             	mov    %rsp,%rbp
  400e93:	48 89 c2             	mov    %rax,%rdx
  400e96:	48 c1 ea 3f          	shr    $0x3f,%rdx
  400e9a:	48 01 d0             	add    %rdx,%rax
  400e9d:	48 d1 f8             	sar    %rax
  400ea0:	75 02                	jne    400ea4 <register_tm_clones+0x24>
  400ea2:	5d                   	pop    %rbp
  400ea3:	c3                   	retq   
  400ea4:	ba 00 00 00 00       	mov    $0x0,%edx
  400ea9:	48 85 d2             	test   %rdx,%rdx
  400eac:	74 f4                	je     400ea2 <register_tm_clones+0x22>
  400eae:	5d                   	pop    %rbp
  400eaf:	48 89 c6             	mov    %rax,%rsi
  400eb2:	bf b0 54 60 00       	mov    $0x6054b0,%edi
  400eb7:	ff e2                	jmpq   *%rdx
  400eb9:	0f 1f 80 00 00 00 00 	nopl   0x0(%rax)

0000000000400ec0 <__do_global_dtors_aux>:
  400ec0:	80 3d 11 46 20 00 00 	cmpb   $0x0,0x204611(%rip)        # 6054d8 <completed.6355>
  400ec7:	75 11                	jne    400eda <__do_global_dtors_aux+0x1a>
  400ec9:	55                   	push   %rbp
  400eca:	48 89 e5             	mov    %rsp,%rbp
  400ecd:	e8 7e ff ff ff       	callq  400e50 <deregister_tm_clones>
  400ed2:	5d                   	pop    %rbp
  400ed3:	c6 05 fe 45 20 00 01 	movb   $0x1,0x2045fe(%rip)        # 6054d8 <completed.6355>
  400eda:	f3 c3                	repz retq 
  400edc:	0f 1f 40 00          	nopl   0x0(%rax)

0000000000400ee0 <frame_dummy>:
  400ee0:	48 83 3d 38 3f 20 00 	cmpq   $0x0,0x203f38(%rip)        # 604e20 <__JCR_END__>
  400ee7:	00 
  400ee8:	74 1e                	je     400f08 <frame_dummy+0x28>
  400eea:	b8 00 00 00 00       	mov    $0x0,%eax
  400eef:	48 85 c0             	test   %rax,%rax
  400ef2:	74 14                	je     400f08 <frame_dummy+0x28>
  400ef4:	55                   	push   %rbp
  400ef5:	bf 20 4e 60 00       	mov    $0x604e20,%edi
  400efa:	48 89 e5             	mov    %rsp,%rbp
  400efd:	ff d0                	callq  *%rax
  400eff:	5d                   	pop    %rbp
  400f00:	e9 7b ff ff ff       	jmpq   400e80 <register_tm_clones>
  400f05:	0f 1f 00             	nopl   (%rax)
  400f08:	e9 73 ff ff ff       	jmpq   400e80 <register_tm_clones>
  400f0d:	0f 1f 00             	nopl   (%rax)

0000000000400f10 <usage>:
  400f10:	48 83 ec 08          	sub    $0x8,%rsp
  400f14:	48 89 fe             	mov    %rdi,%rsi
  400f17:	83 3d ea 45 20 00 00 	cmpl   $0x0,0x2045ea(%rip)        # 605508 <is_checker>
  400f1e:	74 39                	je     400f59 <usage+0x49>
  400f20:	bf d0 2c 40 00       	mov    $0x402cd0,%edi
  400f25:	b8 00 00 00 00       	mov    $0x0,%eax
  400f2a:	e8 51 fd ff ff       	callq  400c80 <printf@plt>
  400f2f:	bf 08 2d 40 00       	mov    $0x402d08,%edi
  400f34:	e8 17 fd ff ff       	callq  400c50 <puts@plt>
  400f39:	bf 80 2e 40 00       	mov    $0x402e80,%edi
  400f3e:	e8 0d fd ff ff       	callq  400c50 <puts@plt>
  400f43:	bf 30 2d 40 00       	mov    $0x402d30,%edi
  400f48:	e8 03 fd ff ff       	callq  400c50 <puts@plt>
  400f4d:	bf 9a 2e 40 00       	mov    $0x402e9a,%edi
  400f52:	e8 f9 fc ff ff       	callq  400c50 <puts@plt>
  400f57:	eb 2d                	jmp    400f86 <usage+0x76>
  400f59:	bf b6 2e 40 00       	mov    $0x402eb6,%edi
  400f5e:	b8 00 00 00 00       	mov    $0x0,%eax
  400f63:	e8 18 fd ff ff       	callq  400c80 <printf@plt>
  400f68:	bf 58 2d 40 00       	mov    $0x402d58,%edi
  400f6d:	e8 de fc ff ff       	callq  400c50 <puts@plt>
  400f72:	bf 80 2d 40 00       	mov    $0x402d80,%edi
  400f77:	e8 d4 fc ff ff       	callq  400c50 <puts@plt>
  400f7c:	bf d4 2e 40 00       	mov    $0x402ed4,%edi
  400f81:	e8 ca fc ff ff       	callq  400c50 <puts@plt>
  400f86:	bf 00 00 00 00       	mov    $0x0,%edi
  400f8b:	e8 60 fe ff ff       	callq  400df0 <exit@plt>

0000000000400f90 <initialize_target>:
  400f90:	55                   	push   %rbp
  400f91:	53                   	push   %rbx
  400f92:	48 81 ec 08 21 00 00 	sub    $0x2108,%rsp
  400f99:	89 f5                	mov    %esi,%ebp
  400f9b:	89 3d 57 45 20 00    	mov    %edi,0x204557(%rip)        # 6054f8 <check_level>
  400fa1:	8b 3d c1 41 20 00    	mov    0x2041c1(%rip),%edi        # 605168 <target_id>
  400fa7:	e8 67 1c 00 00       	callq  402c13 <gencookie>
  400fac:	89 05 52 45 20 00    	mov    %eax,0x204552(%rip)        # 605504 <cookie>
  400fb2:	89 c7                	mov    %eax,%edi
  400fb4:	e8 5a 1c 00 00       	callq  402c13 <gencookie>
  400fb9:	89 05 41 45 20 00    	mov    %eax,0x204541(%rip)        # 605500 <authkey>
  400fbf:	8b 05 a3 41 20 00    	mov    0x2041a3(%rip),%eax        # 605168 <target_id>
  400fc5:	8d 78 01             	lea    0x1(%rax),%edi
  400fc8:	e8 53 fc ff ff       	callq  400c20 <srandom@plt>
  400fcd:	e8 7e fd ff ff       	callq  400d50 <random@plt>
  400fd2:	89 c7                	mov    %eax,%edi
  400fd4:	e8 ca 02 00 00       	callq  4012a3 <scramble>
  400fd9:	89 c3                	mov    %eax,%ebx
  400fdb:	85 ed                	test   %ebp,%ebp
  400fdd:	74 18                	je     400ff7 <initialize_target+0x67>
  400fdf:	bf 00 00 00 00       	mov    $0x0,%edi
  400fe4:	e8 57 fd ff ff       	callq  400d40 <time@plt>
  400fe9:	89 c7                	mov    %eax,%edi
  400feb:	e8 30 fc ff ff       	callq  400c20 <srandom@plt>
  400ff0:	e8 5b fd ff ff       	callq  400d50 <random@plt>
  400ff5:	eb 05                	jmp    400ffc <initialize_target+0x6c>
  400ff7:	b8 00 00 00 00       	mov    $0x0,%eax
  400ffc:	01 c3                	add    %eax,%ebx
  400ffe:	0f b7 db             	movzwl %bx,%ebx
  401001:	8d 04 dd 00 01 00 00 	lea    0x100(,%rbx,8),%eax
  401008:	89 c0                	mov    %eax,%eax
  40100a:	48 89 05 8f 44 20 00 	mov    %rax,0x20448f(%rip)        # 6054a0 <buf_offset>
  401011:	c6 05 10 51 20 00 72 	movb   $0x72,0x205110(%rip)        # 606128 <target_prefix>
  401018:	83 3d 89 44 20 00 00 	cmpl   $0x0,0x204489(%rip)        # 6054a8 <notify>
  40101f:	0f 84 b1 00 00 00    	je     4010d6 <initialize_target+0x146>
  401025:	83 3d dc 44 20 00 00 	cmpl   $0x0,0x2044dc(%rip)        # 605508 <is_checker>
  40102c:	0f 85 a4 00 00 00    	jne    4010d6 <initialize_target+0x146>
  401032:	be 00 01 00 00       	mov    $0x100,%esi
  401037:	48 89 e7             	mov    %rsp,%rdi
  40103a:	e8 91 fd ff ff       	callq  400dd0 <gethostname@plt>
  40103f:	85 c0                	test   %eax,%eax
  401041:	74 25                	je     401068 <initialize_target+0xd8>
  401043:	bf b0 2d 40 00       	mov    $0x402db0,%edi
  401048:	e8 03 fc ff ff       	callq  400c50 <puts@plt>
  40104d:	bf 08 00 00 00       	mov    $0x8,%edi
  401052:	e8 99 fd ff ff       	callq  400df0 <exit@plt>
  401057:	48 89 e6             	mov    %rsp,%rsi
  40105a:	e8 a1 fb ff ff       	callq  400c00 <strcasecmp@plt>
  40105f:	85 c0                	test   %eax,%eax
  401061:	74 21                	je     401084 <initialize_target+0xf4>
  401063:	83 c3 01             	add    $0x1,%ebx
  401066:	eb 05                	jmp    40106d <initialize_target+0xdd>
  401068:	bb 00 00 00 00       	mov    $0x0,%ebx
  40106d:	48 63 c3             	movslq %ebx,%rax
  401070:	48 8b 3c c5 80 51 60 	mov    0x605180(,%rax,8),%rdi
  401077:	00 
  401078:	48 85 ff             	test   %rdi,%rdi
  40107b:	75 da                	jne    401057 <initialize_target+0xc7>
  40107d:	b8 00 00 00 00       	mov    $0x0,%eax
  401082:	eb 05                	jmp    401089 <initialize_target+0xf9>
  401084:	b8 01 00 00 00       	mov    $0x1,%eax
  401089:	85 c0                	test   %eax,%eax
  40108b:	75 17                	jne    4010a4 <initialize_target+0x114>
  40108d:	48 89 e6             	mov    %rsp,%rsi
  401090:	bf e8 2d 40 00       	mov    $0x402de8,%edi
  401095:	e8 e6 fb ff ff       	callq  400c80 <printf@plt>
  40109a:	bf 08 00 00 00       	mov    $0x8,%edi
  40109f:	e8 4c fd ff ff       	callq  400df0 <exit@plt>
  4010a4:	48 8d bc 24 00 01 00 	lea    0x100(%rsp),%rdi
  4010ab:	00 
  4010ac:	e8 f9 18 00 00       	callq  4029aa <init_driver>
  4010b1:	85 c0                	test   %eax,%eax
  4010b3:	79 21                	jns    4010d6 <initialize_target+0x146>
  4010b5:	48 8d b4 24 00 01 00 	lea    0x100(%rsp),%rsi
  4010bc:	00 
  4010bd:	bf 28 2e 40 00       	mov    $0x402e28,%edi
  4010c2:	b8 00 00 00 00       	mov    $0x0,%eax
  4010c7:	e8 b4 fb ff ff       	callq  400c80 <printf@plt>
  4010cc:	bf 08 00 00 00       	mov    $0x8,%edi
  4010d1:	e8 1a fd ff ff       	callq  400df0 <exit@plt>
  4010d6:	48 81 c4 08 21 00 00 	add    $0x2108,%rsp
  4010dd:	5b                   	pop    %rbx
  4010de:	5d                   	pop    %rbp
  4010df:	c3                   	retq   

00000000004010e0 <main>:
  4010e0:	41 56                	push   %r14
  4010e2:	41 55                	push   %r13
  4010e4:	41 54                	push   %r12
  4010e6:	55                   	push   %rbp
  4010e7:	53                   	push   %rbx
  4010e8:	41 89 fc             	mov    %edi,%r12d
  4010eb:	48 89 f3             	mov    %rsi,%rbx
  4010ee:	be d1 1d 40 00       	mov    $0x401dd1,%esi
  4010f3:	bf 0b 00 00 00       	mov    $0xb,%edi
  4010f8:	e8 e3 fb ff ff       	callq  400ce0 <signal@plt>
  4010fd:	be 83 1d 40 00       	mov    $0x401d83,%esi
  401102:	bf 07 00 00 00       	mov    $0x7,%edi
  401107:	e8 d4 fb ff ff       	callq  400ce0 <signal@plt>
  40110c:	be 1f 1e 40 00       	mov    $0x401e1f,%esi
  401111:	bf 04 00 00 00       	mov    $0x4,%edi
  401116:	e8 c5 fb ff ff       	callq  400ce0 <signal@plt>
  40111b:	83 3d e6 43 20 00 00 	cmpl   $0x0,0x2043e6(%rip)        # 605508 <is_checker>
  401122:	74 20                	je     401144 <main+0x64>
  401124:	be 6d 1e 40 00       	mov    $0x401e6d,%esi
  401129:	bf 0e 00 00 00       	mov    $0xe,%edi
  40112e:	e8 ad fb ff ff       	callq  400ce0 <signal@plt>
  401133:	bf 05 00 00 00       	mov    $0x5,%edi
  401138:	e8 63 fb ff ff       	callq  400ca0 <alarm@plt>
  40113d:	bd f2 2e 40 00       	mov    $0x402ef2,%ebp
  401142:	eb 05                	jmp    401149 <main+0x69>
  401144:	bd ed 2e 40 00       	mov    $0x402eed,%ebp
  401149:	48 8b 05 70 43 20 00 	mov    0x204370(%rip),%rax        # 6054c0 <stdin@@GLIBC_2.2.5>
  401150:	48 89 05 99 43 20 00 	mov    %rax,0x204399(%rip)        # 6054f0 <infile>
  401157:	41 bd 00 00 00 00    	mov    $0x0,%r13d
  40115d:	41 be 00 00 00 00    	mov    $0x0,%r14d
  401163:	e9 b9 00 00 00       	jmpq   401221 <main+0x141>
  401168:	83 e8 61             	sub    $0x61,%eax
  40116b:	3c 10                	cmp    $0x10,%al
  40116d:	0f 87 93 00 00 00    	ja     401206 <main+0x126>
  401173:	0f b6 c0             	movzbl %al,%eax
  401176:	ff 24 c5 38 2f 40 00 	jmpq   *0x402f38(,%rax,8)
  40117d:	48 8b 3b             	mov    (%rbx),%rdi
  401180:	e8 8b fd ff ff       	callq  400f10 <usage>
  401185:	be a5 32 40 00       	mov    $0x4032a5,%esi
  40118a:	48 8b 3d 37 43 20 00 	mov    0x204337(%rip),%rdi        # 6054c8 <optarg@@GLIBC_2.2.5>
  401191:	e8 0a fc ff ff       	callq  400da0 <fopen@plt>
  401196:	48 89 05 53 43 20 00 	mov    %rax,0x204353(%rip)        # 6054f0 <infile>
  40119d:	48 85 c0             	test   %rax,%rax
  4011a0:	75 7f                	jne    401221 <main+0x141>
  4011a2:	48 8b 15 1f 43 20 00 	mov    0x20431f(%rip),%rdx        # 6054c8 <optarg@@GLIBC_2.2.5>
  4011a9:	be fa 2e 40 00       	mov    $0x402efa,%esi
  4011ae:	48 8b 3d 1b 43 20 00 	mov    0x20431b(%rip),%rdi        # 6054d0 <stderr@@GLIBC_2.2.5>
  4011b5:	e8 46 fb ff ff       	callq  400d00 <fprintf@plt>
  4011ba:	b8 01 00 00 00       	mov    $0x1,%eax
  4011bf:	e9 d6 00 00 00       	jmpq   40129a <main+0x1ba>
  4011c4:	ba 10 00 00 00       	mov    $0x10,%edx
  4011c9:	be 00 00 00 00       	mov    $0x0,%esi
  4011ce:	48 8b 3d f3 42 20 00 	mov    0x2042f3(%rip),%rdi        # 6054c8 <optarg@@GLIBC_2.2.5>
  4011d5:	e8 e6 fb ff ff       	callq  400dc0 <strtoul@plt>
  4011da:	41 89 c6             	mov    %eax,%r14d
  4011dd:	eb 42                	jmp    401221 <main+0x141>
  4011df:	ba 0a 00 00 00       	mov    $0xa,%edx
  4011e4:	be 00 00 00 00       	mov    $0x0,%esi
  4011e9:	48 8b 3d d8 42 20 00 	mov    0x2042d8(%rip),%rdi        # 6054c8 <optarg@@GLIBC_2.2.5>
  4011f0:	e8 2b fb ff ff       	callq  400d20 <strtol@plt>
  4011f5:	41 89 c5             	mov    %eax,%r13d
  4011f8:	eb 27                	jmp    401221 <main+0x141>
  4011fa:	c7 05 a4 42 20 00 00 	movl   $0x0,0x2042a4(%rip)        # 6054a8 <notify>
  401201:	00 00 00 
  401204:	eb 1b                	jmp    401221 <main+0x141>
  401206:	40 0f be f6          	movsbl %sil,%esi
  40120a:	bf 17 2f 40 00       	mov    $0x402f17,%edi
  40120f:	b8 00 00 00 00       	mov    $0x0,%eax
  401214:	e8 67 fa ff ff       	callq  400c80 <printf@plt>
  401219:	48 8b 3b             	mov    (%rbx),%rdi
  40121c:	e8 ef fc ff ff       	callq  400f10 <usage>
  401221:	48 89 ea             	mov    %rbp,%rdx
  401224:	48 89 de             	mov    %rbx,%rsi
  401227:	44 89 e7             	mov    %r12d,%edi
  40122a:	e8 81 fb ff ff       	callq  400db0 <getopt@plt>
  40122f:	89 c6                	mov    %eax,%esi
  401231:	3c ff                	cmp    $0xff,%al
  401233:	0f 85 2f ff ff ff    	jne    401168 <main+0x88>
  401239:	be 01 00 00 00       	mov    $0x1,%esi
  40123e:	44 89 ef             	mov    %r13d,%edi
  401241:	e8 4a fd ff ff       	callq  400f90 <initialize_target>
  401246:	83 3d bb 42 20 00 00 	cmpl   $0x0,0x2042bb(%rip)        # 605508 <is_checker>
  40124d:	74 25                	je     401274 <main+0x194>
  40124f:	44 3b 35 aa 42 20 00 	cmp    0x2042aa(%rip),%r14d        # 605500 <authkey>
  401256:	74 1c                	je     401274 <main+0x194>
  401258:	44 89 f6             	mov    %r14d,%esi
  40125b:	bf 50 2e 40 00       	mov    $0x402e50,%edi
  401260:	b8 00 00 00 00       	mov    $0x0,%eax
  401265:	e8 16 fa ff ff       	callq  400c80 <printf@plt>
  40126a:	b8 00 00 00 00       	mov    $0x0,%eax
  40126f:	e8 17 08 00 00       	callq  401a8b <check_fail>
  401274:	8b 35 8a 42 20 00    	mov    0x20428a(%rip),%esi        # 605504 <cookie>
  40127a:	bf 2a 2f 40 00       	mov    $0x402f2a,%edi
  40127f:	b8 00 00 00 00       	mov    $0x0,%eax
  401284:	e8 f7 f9 ff ff       	callq  400c80 <printf@plt>
  401289:	48 8b 3d 10 42 20 00 	mov    0x204210(%rip),%rdi        # 6054a0 <buf_offset>
  401290:	e8 26 0c 00 00       	callq  401ebb <launch>
  401295:	b8 00 00 00 00       	mov    $0x0,%eax
  40129a:	5b                   	pop    %rbx
  40129b:	5d                   	pop    %rbp
  40129c:	41 5c                	pop    %r12
  40129e:	41 5d                	pop    %r13
  4012a0:	41 5e                	pop    %r14
  4012a2:	c3                   	retq   

00000000004012a3 <scramble>:
  4012a3:	b8 00 00 00 00       	mov    $0x0,%eax
  4012a8:	eb 11                	jmp    4012bb <scramble+0x18>
  4012aa:	69 c8 09 b7 00 00    	imul   $0xb709,%eax,%ecx
  4012b0:	01 f9                	add    %edi,%ecx
  4012b2:	89 c2                	mov    %eax,%edx
  4012b4:	89 4c 94 d0          	mov    %ecx,-0x30(%rsp,%rdx,4)
  4012b8:	83 c0 01             	add    $0x1,%eax
  4012bb:	83 f8 09             	cmp    $0x9,%eax
  4012be:	76 ea                	jbe    4012aa <scramble+0x7>
  4012c0:	8b 44 24 f0          	mov    -0x10(%rsp),%eax
  4012c4:	69 c0 08 36 00 00    	imul   $0x3608,%eax,%eax
  4012ca:	89 44 24 f0          	mov    %eax,-0x10(%rsp)
  4012ce:	8b 44 24 ec          	mov    -0x14(%rsp),%eax
  4012d2:	69 c0 8c 5d 00 00    	imul   $0x5d8c,%eax,%eax
  4012d8:	89 44 24 ec          	mov    %eax,-0x14(%rsp)
  4012dc:	8b 44 24 e4          	mov    -0x1c(%rsp),%eax
  4012e0:	69 c0 b6 68 00 00    	imul   $0x68b6,%eax,%eax
  4012e6:	89 44 24 e4          	mov    %eax,-0x1c(%rsp)
  4012ea:	8b 44 24 f0          	mov    -0x10(%rsp),%eax
  4012ee:	69 c0 11 f5 00 00    	imul   $0xf511,%eax,%eax
  4012f4:	89 44 24 f0          	mov    %eax,-0x10(%rsp)
  4012f8:	8b 44 24 e4          	mov    -0x1c(%rsp),%eax
  4012fc:	69 c0 64 0a 00 00    	imul   $0xa64,%eax,%eax
  401302:	89 44 24 e4          	mov    %eax,-0x1c(%rsp)
  401306:	8b 44 24 f0          	mov    -0x10(%rsp),%eax
  40130a:	69 c0 c9 5d 00 00    	imul   $0x5dc9,%eax,%eax
  401310:	89 44 24 f0          	mov    %eax,-0x10(%rsp)
  401314:	8b 44 24 e4          	mov    -0x1c(%rsp),%eax
  401318:	69 c0 fd 0c 00 00    	imul   $0xcfd,%eax,%eax
  40131e:	89 44 24 e4          	mov    %eax,-0x1c(%rsp)
  401322:	8b 44 24 d0          	mov    -0x30(%rsp),%eax
  401326:	69 c0 00 73 00 00    	imul   $0x7300,%eax,%eax
  40132c:	89 44 24 d0          	mov    %eax,-0x30(%rsp)
  401330:	8b 44 24 f0          	mov    -0x10(%rsp),%eax
  401334:	69 c0 0b 6a 00 00    	imul   $0x6a0b,%eax,%eax
  40133a:	89 44 24 f0          	mov    %eax,-0x10(%rsp)
  40133e:	8b 44 24 ec          	mov    -0x14(%rsp),%eax
  401342:	69 c0 63 d6 00 00    	imul   $0xd663,%eax,%eax
  401348:	89 44 24 ec          	mov    %eax,-0x14(%rsp)
  40134c:	8b 44 24 e4          	mov    -0x1c(%rsp),%eax
  401350:	69 c0 dd 10 00 00    	imul   $0x10dd,%eax,%eax
  401356:	89 44 24 e4          	mov    %eax,-0x1c(%rsp)
  40135a:	8b 44 24 f0          	mov    -0x10(%rsp),%eax
  40135e:	69 c0 0a a4 00 00    	imul   $0xa40a,%eax,%eax
  401364:	89 44 24 f0          	mov    %eax,-0x10(%rsp)
  401368:	8b 44 24 d4          	mov    -0x2c(%rsp),%eax
  40136c:	69 c0 b2 46 00 00    	imul   $0x46b2,%eax,%eax
  401372:	89 44 24 d4          	mov    %eax,-0x2c(%rsp)
  401376:	8b 44 24 f0          	mov    -0x10(%rsp),%eax
  40137a:	69 c0 47 74 00 00    	imul   $0x7447,%eax,%eax
  401380:	89 44 24 f0          	mov    %eax,-0x10(%rsp)
  401384:	8b 44 24 e4          	mov    -0x1c(%rsp),%eax
  401388:	69 c0 55 7f 00 00    	imul   $0x7f55,%eax,%eax
  40138e:	89 44 24 e4          	mov    %eax,-0x1c(%rsp)
  401392:	8b 44 24 f4          	mov    -0xc(%rsp),%eax
  401396:	69 c0 b4 9c 00 00    	imul   $0x9cb4,%eax,%eax
  40139c:	89 44 24 f4          	mov    %eax,-0xc(%rsp)
  4013a0:	8b 44 24 d8          	mov    -0x28(%rsp),%eax
  4013a4:	69 c0 03 07 00 00    	imul   $0x703,%eax,%eax
  4013aa:	89 44 24 d8          	mov    %eax,-0x28(%rsp)
  4013ae:	8b 44 24 e4          	mov    -0x1c(%rsp),%eax
  4013b2:	69 c0 3a af 00 00    	imul   $0xaf3a,%eax,%eax
  4013b8:	89 44 24 e4          	mov    %eax,-0x1c(%rsp)
  4013bc:	8b 44 24 e0          	mov    -0x20(%rsp),%eax
  4013c0:	69 c0 b1 c9 00 00    	imul   $0xc9b1,%eax,%eax
  4013c6:	89 44 24 e0          	mov    %eax,-0x20(%rsp)
  4013ca:	8b 44 24 d4          	mov    -0x2c(%rsp),%eax
  4013ce:	69 c0 33 34 00 00    	imul   $0x3433,%eax,%eax
  4013d4:	89 44 24 d4          	mov    %eax,-0x2c(%rsp)
  4013d8:	8b 44 24 ec          	mov    -0x14(%rsp),%eax
  4013dc:	69 c0 b5 a2 00 00    	imul   $0xa2b5,%eax,%eax
  4013e2:	89 44 24 ec          	mov    %eax,-0x14(%rsp)
  4013e6:	8b 44 24 f0          	mov    -0x10(%rsp),%eax
  4013ea:	69 c0 07 a6 00 00    	imul   $0xa607,%eax,%eax
  4013f0:	89 44 24 f0          	mov    %eax,-0x10(%rsp)
  4013f4:	8b 44 24 f4          	mov    -0xc(%rsp),%eax
  4013f8:	69 c0 5c b4 00 00    	imul   $0xb45c,%eax,%eax
  4013fe:	89 44 24 f4          	mov    %eax,-0xc(%rsp)
  401402:	8b 44 24 e4          	mov    -0x1c(%rsp),%eax
  401406:	69 c0 9e cf 00 00    	imul   $0xcf9e,%eax,%eax
  40140c:	89 44 24 e4          	mov    %eax,-0x1c(%rsp)
  401410:	8b 44 24 dc          	mov    -0x24(%rsp),%eax
  401414:	69 c0 b9 6c 00 00    	imul   $0x6cb9,%eax,%eax
  40141a:	89 44 24 dc          	mov    %eax,-0x24(%rsp)
  40141e:	8b 44 24 ec          	mov    -0x14(%rsp),%eax
  401422:	69 c0 29 3c 00 00    	imul   $0x3c29,%eax,%eax
  401428:	89 44 24 ec          	mov    %eax,-0x14(%rsp)
  40142c:	8b 44 24 f4          	mov    -0xc(%rsp),%eax
  401430:	69 c0 ff 18 00 00    	imul   $0x18ff,%eax,%eax
  401436:	89 44 24 f4          	mov    %eax,-0xc(%rsp)
  40143a:	8b 44 24 ec          	mov    -0x14(%rsp),%eax
  40143e:	69 c0 bd 04 00 00    	imul   $0x4bd,%eax,%eax
  401444:	89 44 24 ec          	mov    %eax,-0x14(%rsp)
  401448:	8b 44 24 d4          	mov    -0x2c(%rsp),%eax
  40144c:	69 c0 76 fb 00 00    	imul   $0xfb76,%eax,%eax
  401452:	89 44 24 d4          	mov    %eax,-0x2c(%rsp)
  401456:	8b 44 24 f0          	mov    -0x10(%rsp),%eax
  40145a:	69 c0 5c 45 00 00    	imul   $0x455c,%eax,%eax
  401460:	89 44 24 f0          	mov    %eax,-0x10(%rsp)
  401464:	8b 44 24 e0          	mov    -0x20(%rsp),%eax
  401468:	69 c0 c0 10 00 00    	imul   $0x10c0,%eax,%eax
  40146e:	89 44 24 e0          	mov    %eax,-0x20(%rsp)
  401472:	8b 44 24 d4          	mov    -0x2c(%rsp),%eax
  401476:	69 c0 29 30 00 00    	imul   $0x3029,%eax,%eax
  40147c:	89 44 24 d4          	mov    %eax,-0x2c(%rsp)
  401480:	8b 44 24 e0          	mov    -0x20(%rsp),%eax
  401484:	69 c0 50 dc 00 00    	imul   $0xdc50,%eax,%eax
  40148a:	89 44 24 e0          	mov    %eax,-0x20(%rsp)
  40148e:	8b 44 24 ec          	mov    -0x14(%rsp),%eax
  401492:	69 c0 7d 87 00 00    	imul   $0x877d,%eax,%eax
  401498:	89 44 24 ec          	mov    %eax,-0x14(%rsp)
  40149c:	8b 44 24 d8          	mov    -0x28(%rsp),%eax
  4014a0:	69 c0 b0 83 00 00    	imul   $0x83b0,%eax,%eax
  4014a6:	89 44 24 d8          	mov    %eax,-0x28(%rsp)
  4014aa:	8b 44 24 d4          	mov    -0x2c(%rsp),%eax
  4014ae:	69 c0 17 7a 00 00    	imul   $0x7a17,%eax,%eax
  4014b4:	89 44 24 d4          	mov    %eax,-0x2c(%rsp)
  4014b8:	8b 44 24 d0          	mov    -0x30(%rsp),%eax
  4014bc:	69 c0 ad 4d 00 00    	imul   $0x4dad,%eax,%eax
  4014c2:	89 44 24 d0          	mov    %eax,-0x30(%rsp)
  4014c6:	8b 44 24 dc          	mov    -0x24(%rsp),%eax
  4014ca:	69 c0 17 d6 00 00    	imul   $0xd617,%eax,%eax
  4014d0:	89 44 24 dc          	mov    %eax,-0x24(%rsp)
  4014d4:	8b 44 24 f4          	mov    -0xc(%rsp),%eax
  4014d8:	69 c0 26 39 00 00    	imul   $0x3926,%eax,%eax
  4014de:	89 44 24 f4          	mov    %eax,-0xc(%rsp)
  4014e2:	8b 44 24 d4          	mov    -0x2c(%rsp),%eax
  4014e6:	69 c0 71 20 00 00    	imul   $0x2071,%eax,%eax
  4014ec:	89 44 24 d4          	mov    %eax,-0x2c(%rsp)
  4014f0:	8b 44 24 e8          	mov    -0x18(%rsp),%eax
  4014f4:	69 c0 b7 4b 00 00    	imul   $0x4bb7,%eax,%eax
  4014fa:	89 44 24 e8          	mov    %eax,-0x18(%rsp)
  4014fe:	8b 44 24 e8          	mov    -0x18(%rsp),%eax
  401502:	69 c0 76 23 00 00    	imul   $0x2376,%eax,%eax
  401508:	89 44 24 e8          	mov    %eax,-0x18(%rsp)
  40150c:	8b 44 24 e8          	mov    -0x18(%rsp),%eax
  401510:	69 c0 cd 3c 00 00    	imul   $0x3ccd,%eax,%eax
  401516:	89 44 24 e8          	mov    %eax,-0x18(%rsp)
  40151a:	8b 44 24 ec          	mov    -0x14(%rsp),%eax
  40151e:	69 c0 67 c4 00 00    	imul   $0xc467,%eax,%eax
  401524:	89 44 24 ec          	mov    %eax,-0x14(%rsp)
  401528:	8b 44 24 d4          	mov    -0x2c(%rsp),%eax
  40152c:	69 c0 39 a1 00 00    	imul   $0xa139,%eax,%eax
  401532:	89 44 24 d4          	mov    %eax,-0x2c(%rsp)
  401536:	8b 44 24 e4          	mov    -0x1c(%rsp),%eax
  40153a:	69 c0 0f b3 00 00    	imul   $0xb30f,%eax,%eax
  401540:	89 44 24 e4          	mov    %eax,-0x1c(%rsp)
  401544:	8b 44 24 ec          	mov    -0x14(%rsp),%eax
  401548:	69 c0 d3 eb 00 00    	imul   $0xebd3,%eax,%eax
  40154e:	89 44 24 ec          	mov    %eax,-0x14(%rsp)
  401552:	8b 44 24 e4          	mov    -0x1c(%rsp),%eax
  401556:	69 c0 bc c9 00 00    	imul   $0xc9bc,%eax,%eax
  40155c:	89 44 24 e4          	mov    %eax,-0x1c(%rsp)
  401560:	8b 44 24 ec          	mov    -0x14(%rsp),%eax
  401564:	69 c0 9d c2 00 00    	imul   $0xc29d,%eax,%eax
  40156a:	89 44 24 ec          	mov    %eax,-0x14(%rsp)
  40156e:	8b 44 24 dc          	mov    -0x24(%rsp),%eax
  401572:	69 c0 25 6e 00 00    	imul   $0x6e25,%eax,%eax
  401578:	89 44 24 dc          	mov    %eax,-0x24(%rsp)
  40157c:	8b 44 24 e0          	mov    -0x20(%rsp),%eax
  401580:	69 c0 ea 0c 00 00    	imul   $0xcea,%eax,%eax
  401586:	89 44 24 e0          	mov    %eax,-0x20(%rsp)
  40158a:	8b 44 24 f4          	mov    -0xc(%rsp),%eax
  40158e:	69 c0 b2 6c 00 00    	imul   $0x6cb2,%eax,%eax
  401594:	89 44 24 f4          	mov    %eax,-0xc(%rsp)
  401598:	8b 44 24 dc          	mov    -0x24(%rsp),%eax
  40159c:	69 c0 5a 08 00 00    	imul   $0x85a,%eax,%eax
  4015a2:	89 44 24 dc          	mov    %eax,-0x24(%rsp)
  4015a6:	8b 44 24 e8          	mov    -0x18(%rsp),%eax
  4015aa:	69 c0 a1 5c 00 00    	imul   $0x5ca1,%eax,%eax
  4015b0:	89 44 24 e8          	mov    %eax,-0x18(%rsp)
  4015b4:	8b 44 24 e0          	mov    -0x20(%rsp),%eax
  4015b8:	69 c0 7e e8 00 00    	imul   $0xe87e,%eax,%eax
  4015be:	89 44 24 e0          	mov    %eax,-0x20(%rsp)
  4015c2:	8b 44 24 f4          	mov    -0xc(%rsp),%eax
  4015c6:	69 c0 60 e7 00 00    	imul   $0xe760,%eax,%eax
  4015cc:	89 44 24 f4          	mov    %eax,-0xc(%rsp)
  4015d0:	8b 44 24 f0          	mov    -0x10(%rsp),%eax
  4015d4:	69 c0 ac d9 00 00    	imul   $0xd9ac,%eax,%eax
  4015da:	89 44 24 f0          	mov    %eax,-0x10(%rsp)
  4015de:	8b 44 24 ec          	mov    -0x14(%rsp),%eax
  4015e2:	69 c0 eb 98 00 00    	imul   $0x98eb,%eax,%eax
  4015e8:	89 44 24 ec          	mov    %eax,-0x14(%rsp)
  4015ec:	8b 44 24 d4          	mov    -0x2c(%rsp),%eax
  4015f0:	69 c0 0a 33 00 00    	imul   $0x330a,%eax,%eax
  4015f6:	89 44 24 d4          	mov    %eax,-0x2c(%rsp)
  4015fa:	8b 44 24 dc          	mov    -0x24(%rsp),%eax
  4015fe:	69 c0 bc 4e 00 00    	imul   $0x4ebc,%eax,%eax
  401604:	89 44 24 dc          	mov    %eax,-0x24(%rsp)
  401608:	8b 44 24 e0          	mov    -0x20(%rsp),%eax
  40160c:	69 c0 16 67 00 00    	imul   $0x6716,%eax,%eax
  401612:	89 44 24 e0          	mov    %eax,-0x20(%rsp)
  401616:	8b 44 24 d8          	mov    -0x28(%rsp),%eax
  40161a:	69 c0 3c 86 00 00    	imul   $0x863c,%eax,%eax
  401620:	89 44 24 d8          	mov    %eax,-0x28(%rsp)
  401624:	8b 44 24 f4          	mov    -0xc(%rsp),%eax
  401628:	69 c0 05 e5 00 00    	imul   $0xe505,%eax,%eax
  40162e:	89 44 24 f4          	mov    %eax,-0xc(%rsp)
  401632:	8b 44 24 e0          	mov    -0x20(%rsp),%eax
  401636:	69 c0 0d 1b 00 00    	imul   $0x1b0d,%eax,%eax
  40163c:	89 44 24 e0          	mov    %eax,-0x20(%rsp)
  401640:	8b 44 24 d8          	mov    -0x28(%rsp),%eax
  401644:	69 c0 32 a1 00 00    	imul   $0xa132,%eax,%eax
  40164a:	89 44 24 d8          	mov    %eax,-0x28(%rsp)
  40164e:	8b 44 24 f0          	mov    -0x10(%rsp),%eax
  401652:	69 c0 ef ed 00 00    	imul   $0xedef,%eax,%eax
  401658:	89 44 24 f0          	mov    %eax,-0x10(%rsp)
  40165c:	8b 44 24 dc          	mov    -0x24(%rsp),%eax
  401660:	69 c0 6e 71 00 00    	imul   $0x716e,%eax,%eax
  401666:	89 44 24 dc          	mov    %eax,-0x24(%rsp)
  40166a:	8b 44 24 d4          	mov    -0x2c(%rsp),%eax
  40166e:	69 c0 b4 08 00 00    	imul   $0x8b4,%eax,%eax
  401674:	89 44 24 d4          	mov    %eax,-0x2c(%rsp)
  401678:	8b 44 24 d4          	mov    -0x2c(%rsp),%eax
  40167c:	69 c0 6a 9d 00 00    	imul   $0x9d6a,%eax,%eax
  401682:	89 44 24 d4          	mov    %eax,-0x2c(%rsp)
  401686:	8b 44 24 d8          	mov    -0x28(%rsp),%eax
  40168a:	69 c0 49 bb 00 00    	imul   $0xbb49,%eax,%eax
  401690:	89 44 24 d8          	mov    %eax,-0x28(%rsp)
  401694:	8b 44 24 ec          	mov    -0x14(%rsp),%eax
  401698:	69 c0 67 e2 00 00    	imul   $0xe267,%eax,%eax
  40169e:	89 44 24 ec          	mov    %eax,-0x14(%rsp)
  4016a2:	8b 44 24 ec          	mov    -0x14(%rsp),%eax
  4016a6:	69 c0 1e ba 00 00    	imul   $0xba1e,%eax,%eax
  4016ac:	89 44 24 ec          	mov    %eax,-0x14(%rsp)
  4016b0:	8b 44 24 d4          	mov    -0x2c(%rsp),%eax
  4016b4:	69 c0 80 ad 00 00    	imul   $0xad80,%eax,%eax
  4016ba:	89 44 24 d4          	mov    %eax,-0x2c(%rsp)
  4016be:	8b 44 24 d8          	mov    -0x28(%rsp),%eax
  4016c2:	69 c0 8c d2 00 00    	imul   $0xd28c,%eax,%eax
  4016c8:	89 44 24 d8          	mov    %eax,-0x28(%rsp)
  4016cc:	8b 44 24 d8          	mov    -0x28(%rsp),%eax
  4016d0:	69 c0 5c b0 00 00    	imul   $0xb05c,%eax,%eax
  4016d6:	89 44 24 d8          	mov    %eax,-0x28(%rsp)
  4016da:	8b 44 24 d4          	mov    -0x2c(%rsp),%eax
  4016de:	69 c0 ce b4 00 00    	imul   $0xb4ce,%eax,%eax
  4016e4:	89 44 24 d4          	mov    %eax,-0x2c(%rsp)
  4016e8:	8b 44 24 f0          	mov    -0x10(%rsp),%eax
  4016ec:	69 c0 14 23 00 00    	imul   $0x2314,%eax,%eax
  4016f2:	89 44 24 f0          	mov    %eax,-0x10(%rsp)
  4016f6:	8b 44 24 f4          	mov    -0xc(%rsp),%eax
  4016fa:	69 c0 5d 6a 00 00    	imul   $0x6a5d,%eax,%eax
  401700:	89 44 24 f4          	mov    %eax,-0xc(%rsp)
  401704:	8b 44 24 d8          	mov    -0x28(%rsp),%eax
  401708:	69 c0 03 8b 00 00    	imul   $0x8b03,%eax,%eax
  40170e:	89 44 24 d8          	mov    %eax,-0x28(%rsp)
  401712:	8b 44 24 f0          	mov    -0x10(%rsp),%eax
  401716:	69 c0 bb af 00 00    	imul   $0xafbb,%eax,%eax
  40171c:	89 44 24 f0          	mov    %eax,-0x10(%rsp)
  401720:	8b 44 24 d8          	mov    -0x28(%rsp),%eax
  401724:	69 c0 9d 0e 00 00    	imul   $0xe9d,%eax,%eax
  40172a:	89 44 24 d8          	mov    %eax,-0x28(%rsp)
  40172e:	8b 44 24 d4          	mov    -0x2c(%rsp),%eax
  401732:	69 c0 52 da 00 00    	imul   $0xda52,%eax,%eax
  401738:	89 44 24 d4          	mov    %eax,-0x2c(%rsp)
  40173c:	ba 00 00 00 00       	mov    $0x0,%edx
  401741:	b8 00 00 00 00       	mov    $0x0,%eax
  401746:	eb 0b                	jmp    401753 <scramble+0x4b0>
  401748:	89 d1                	mov    %edx,%ecx
  40174a:	8b 4c 8c d0          	mov    -0x30(%rsp,%rcx,4),%ecx
  40174e:	01 c8                	add    %ecx,%eax
  401750:	83 c2 01             	add    $0x1,%edx
  401753:	83 fa 09             	cmp    $0x9,%edx
  401756:	76 f0                	jbe    401748 <scramble+0x4a5>
  401758:	f3 c3                	repz retq 

000000000040175a <getbuf>:
  40175a:	48 83 ec 18          	sub    $0x18,%rsp
  40175e:	48 89 e7             	mov    %rsp,%rdi
  401761:	e8 54 03 00 00       	callq  401aba <Gets>
  401766:	b8 01 00 00 00       	mov    $0x1,%eax
  40176b:	48 83 c4 18          	add    $0x18,%rsp
  40176f:	c3                   	retq   

0000000000401770 <touch1>:
  401770:	48 83 ec 08          	sub    $0x8,%rsp
  401774:	c7 05 7e 3d 20 00 01 	movl   $0x1,0x203d7e(%rip)        # 6054fc <vlevel>
  40177b:	00 00 00 
  40177e:	bf f7 30 40 00       	mov    $0x4030f7,%edi
  401783:	e8 c8 f4 ff ff       	callq  400c50 <puts@plt>
  401788:	bf 01 00 00 00       	mov    $0x1,%edi
  40178d:	e8 17 05 00 00       	callq  401ca9 <validate>
  401792:	bf 00 00 00 00       	mov    $0x0,%edi
  401797:	e8 54 f6 ff ff       	callq  400df0 <exit@plt>

000000000040179c <touch2>:
  40179c:	48 83 ec 08          	sub    $0x8,%rsp
  4017a0:	89 fe                	mov    %edi,%esi
  4017a2:	c7 05 50 3d 20 00 02 	movl   $0x2,0x203d50(%rip)        # 6054fc <vlevel>
  4017a9:	00 00 00 
  4017ac:	3b 3d 52 3d 20 00    	cmp    0x203d52(%rip),%edi        # 605504 <cookie>
  4017b2:	75 1b                	jne    4017cf <touch2+0x33>
  4017b4:	bf 20 31 40 00       	mov    $0x403120,%edi
  4017b9:	b8 00 00 00 00       	mov    $0x0,%eax
  4017be:	e8 bd f4 ff ff       	callq  400c80 <printf@plt>
  4017c3:	bf 02 00 00 00       	mov    $0x2,%edi
  4017c8:	e8 dc 04 00 00       	callq  401ca9 <validate>
  4017cd:	eb 19                	jmp    4017e8 <touch2+0x4c>
  4017cf:	bf 48 31 40 00       	mov    $0x403148,%edi
  4017d4:	b8 00 00 00 00       	mov    $0x0,%eax
  4017d9:	e8 a2 f4 ff ff       	callq  400c80 <printf@plt>
  4017de:	bf 02 00 00 00       	mov    $0x2,%edi
  4017e3:	e8 73 05 00 00       	callq  401d5b <fail>
  4017e8:	bf 00 00 00 00       	mov    $0x0,%edi
  4017ed:	e8 fe f5 ff ff       	callq  400df0 <exit@plt>

00000000004017f2 <hexmatch>:
  4017f2:	41 54                	push   %r12
  4017f4:	55                   	push   %rbp
  4017f5:	53                   	push   %rbx
  4017f6:	48 83 ec 70          	sub    $0x70,%rsp
  4017fa:	41 89 fc             	mov    %edi,%r12d
  4017fd:	48 89 f5             	mov    %rsi,%rbp
  401800:	e8 4b f5 ff ff       	callq  400d50 <random@plt>
  401805:	48 89 c1             	mov    %rax,%rcx
  401808:	48 ba 0b d7 a3 70 3d 	movabs $0xa3d70a3d70a3d70b,%rdx
  40180f:	0a d7 a3 
  401812:	48 f7 ea             	imul   %rdx
  401815:	48 8d 04 0a          	lea    (%rdx,%rcx,1),%rax
  401819:	48 c1 f8 06          	sar    $0x6,%rax
  40181d:	48 89 ce             	mov    %rcx,%rsi
  401820:	48 c1 fe 3f          	sar    $0x3f,%rsi
  401824:	48 29 f0             	sub    %rsi,%rax
  401827:	48 8d 04 80          	lea    (%rax,%rax,4),%rax
  40182b:	48 8d 04 80          	lea    (%rax,%rax,4),%rax
  40182f:	48 c1 e0 02          	shl    $0x2,%rax
  401833:	48 29 c1             	sub    %rax,%rcx
  401836:	48 8d 1c 0c          	lea    (%rsp,%rcx,1),%rbx
  40183a:	44 89 e2             	mov    %r12d,%edx
  40183d:	be 14 31 40 00       	mov    $0x403114,%esi
  401842:	48 89 df             	mov    %rbx,%rdi
  401845:	b8 00 00 00 00       	mov    $0x0,%eax
  40184a:	e8 91 f5 ff ff       	callq  400de0 <sprintf@plt>
  40184f:	ba 09 00 00 00       	mov    $0x9,%edx
  401854:	48 89 de             	mov    %rbx,%rsi
  401857:	48 89 ef             	mov    %rbp,%rdi
  40185a:	e8 d1 f3 ff ff       	callq  400c30 <strncmp@plt>
  40185f:	85 c0                	test   %eax,%eax
  401861:	0f 94 c0             	sete   %al
  401864:	0f b6 c0             	movzbl %al,%eax
  401867:	48 83 c4 70          	add    $0x70,%rsp
  40186b:	5b                   	pop    %rbx
  40186c:	5d                   	pop    %rbp
  40186d:	41 5c                	pop    %r12
  40186f:	c3                   	retq   

0000000000401870 <touch3>:
  401870:	53                   	push   %rbx
  401871:	48 89 fb             	mov    %rdi,%rbx
  401874:	c7 05 7e 3c 20 00 03 	movl   $0x3,0x203c7e(%rip)        # 6054fc <vlevel>
  40187b:	00 00 00 
  40187e:	48 89 fe             	mov    %rdi,%rsi
  401881:	8b 3d 7d 3c 20 00    	mov    0x203c7d(%rip),%edi        # 605504 <cookie>
  401887:	e8 66 ff ff ff       	callq  4017f2 <hexmatch>
  40188c:	85 c0                	test   %eax,%eax
  40188e:	74 1e                	je     4018ae <touch3+0x3e>
  401890:	48 89 de             	mov    %rbx,%rsi
  401893:	bf 70 31 40 00       	mov    $0x403170,%edi
  401898:	b8 00 00 00 00       	mov    $0x0,%eax
  40189d:	e8 de f3 ff ff       	callq  400c80 <printf@plt>
  4018a2:	bf 03 00 00 00       	mov    $0x3,%edi
  4018a7:	e8 fd 03 00 00       	callq  401ca9 <validate>
  4018ac:	eb 1c                	jmp    4018ca <touch3+0x5a>
  4018ae:	48 89 de             	mov    %rbx,%rsi
  4018b1:	bf 98 31 40 00       	mov    $0x403198,%edi
  4018b6:	b8 00 00 00 00       	mov    $0x0,%eax
  4018bb:	e8 c0 f3 ff ff       	callq  400c80 <printf@plt>
  4018c0:	bf 03 00 00 00       	mov    $0x3,%edi
  4018c5:	e8 91 04 00 00       	callq  401d5b <fail>
  4018ca:	bf 00 00 00 00       	mov    $0x0,%edi
  4018cf:	e8 1c f5 ff ff       	callq  400df0 <exit@plt>

00000000004018d4 <test>:
  4018d4:	48 83 ec 08          	sub    $0x8,%rsp
  4018d8:	b8 00 00 00 00       	mov    $0x0,%eax
  4018dd:	e8 78 fe ff ff       	callq  40175a <getbuf>
  4018e2:	89 c6                	mov    %eax,%esi
  4018e4:	bf c0 31 40 00       	mov    $0x4031c0,%edi
  4018e9:	b8 00 00 00 00       	mov    $0x0,%eax
  4018ee:	e8 8d f3 ff ff       	callq  400c80 <printf@plt>
  4018f3:	48 83 c4 08          	add    $0x8,%rsp
  4018f7:	c3                   	retq   

00000000004018f8 <start_farm>:
  4018f8:	b8 01 00 00 00       	mov    $0x1,%eax
  4018fd:	c3                   	retq   

00000000004018fe <addval_466>:
  4018fe:	8d 87 48 89 c7 c3    	lea    -0x3c3876b8(%rdi),%eax
  401904:	c3                   	retq   

0000000000401905 <addval_289>:
  401905:	8d 87 e2 58 90 90    	lea    -0x6f6fa71e(%rdi),%eax
  40190b:	c3                   	retq   

000000000040190c <setval_339>:
  40190c:	c7 07 48 89 c7 c3    	movl   $0xc3c78948,(%rdi)
  401912:	c3                   	retq   

0000000000401913 <addval_332>:
  401913:	8d 87 48 88 c7 c3    	lea    -0x3c3877b8(%rdi),%eax
  401919:	c3                   	retq   

000000000040191a <getval_248>:
  40191a:	b8 ad 8c 28 58       	mov    $0x58288cad,%eax
  40191f:	c3                   	retq   

0000000000401920 <setval_116>:
  401920:	c7 07 48 89 c7 c1    	movl   $0xc1c78948,(%rdi)
  401926:	c3                   	retq   

0000000000401927 <addval_105>:
  401927:	8d 87 ff 09 f4 50    	lea    0x50f409ff(%rdi),%eax
  40192d:	c3                   	retq   

000000000040192e <setval_100>:
  40192e:	c7 07 58 90 92 c3    	movl   $0xc3929058,(%rdi)
  401934:	c3                   	retq   

0000000000401935 <mid_farm>:
  401935:	b8 01 00 00 00       	mov    $0x1,%eax
  40193a:	c3                   	retq   

000000000040193b <add_xy>:
  40193b:	48 8d 04 37          	lea    (%rdi,%rsi,1),%rax
  40193f:	c3                   	retq   

0000000000401940 <getval_163>:
  401940:	b8 8b d1 38 db       	mov    $0xdb38d18b,%eax
  401945:	c3                   	retq   

0000000000401946 <setval_176>:
  401946:	c7 07 9a a9 d1 90    	movl   $0x90d1a99a,(%rdi)
  40194c:	c3                   	retq   

000000000040194d <getval_362>:
  40194d:	b8 89 c2 c4 c0       	mov    $0xc0c4c289,%eax
  401952:	c3                   	retq   

0000000000401953 <addval_382>:
  401953:	8d 87 89 ce 78 c0    	lea    -0x3f873177(%rdi),%eax
  401959:	c3                   	retq   

000000000040195a <addval_299>:
  40195a:	8d 87 ba 89 c2 c3    	lea    -0x3c3d7646(%rdi),%eax
  401960:	c3                   	retq   

0000000000401961 <addval_441>:
  401961:	8d 87 38 48 81 e0    	lea    -0x1f7eb7c8(%rdi),%eax
  401967:	c3                   	retq   

0000000000401968 <getval_306>:
  401968:	b8 a9 ce 90 c3       	mov    $0xc390cea9,%eax
  40196d:	c3                   	retq   

000000000040196e <addval_177>:
  40196e:	8d 87 89 d1 90 90    	lea    -0x6f6f2e77(%rdi),%eax
  401974:	c3                   	retq   

0000000000401975 <addval_132>:
  401975:	8d 87 48 89 e0 94    	lea    -0x6b1f76b8(%rdi),%eax
  40197b:	c3                   	retq   

000000000040197c <getval_420>:
  40197c:	b8 ac 89 ce 90       	mov    $0x90ce89ac,%eax
  401981:	c3                   	retq   

0000000000401982 <getval_454>:
  401982:	b8 4c 89 d1 94       	mov    $0x94d1894c,%eax
  401987:	c3                   	retq   

0000000000401988 <addval_371>:
  401988:	8d 87 81 c2 20 c0    	lea    -0x3fdf3d7f(%rdi),%eax
  40198e:	c3                   	retq   

000000000040198f <addval_187>:
  40198f:	8d 87 89 c2 60 d2    	lea    -0x2d9f3d77(%rdi),%eax
  401995:	c3                   	retq   

0000000000401996 <getval_264>:
  401996:	b8 48 89 e0 92       	mov    $0x92e08948,%eax
  40199b:	c3                   	retq   

000000000040199c <addval_389>:
  40199c:	8d 87 8b d1 c3 84    	lea    -0x7b3c2e75(%rdi),%eax
  4019a2:	c3                   	retq   

00000000004019a3 <getval_207>:
  4019a3:	b8 c9 ce 20 c0       	mov    $0xc020cec9,%eax
  4019a8:	c3                   	retq   

00000000004019a9 <getval_243>:
  4019a9:	b8 48 89 e0 c7       	mov    $0xc7e08948,%eax
  4019ae:	c3                   	retq   

00000000004019af <setval_351>:
  4019af:	c7 07 c9 ce 20 d2    	movl   $0xd220cec9,(%rdi)
  4019b5:	c3                   	retq   

00000000004019b6 <getval_450>:
  4019b6:	b8 48 89 e0 c3       	mov    $0xc3e08948,%eax
  4019bb:	c3                   	retq   

00000000004019bc <setval_265>:
  4019bc:	c7 07 88 ce 08 c9    	movl   $0xc908ce88,(%rdi)
  4019c2:	c3                   	retq   

00000000004019c3 <setval_384>:
  4019c3:	c7 07 89 c2 84 db    	movl   $0xdb84c289,(%rdi)
  4019c9:	c3                   	retq   

00000000004019ca <addval_206>:
  4019ca:	8d 87 89 d1 92 c3    	lea    -0x3c6d2e77(%rdi),%eax
  4019d0:	c3                   	retq   

00000000004019d1 <getval_262>:
  4019d1:	b8 48 89 e0 c2       	mov    $0xc2e08948,%eax
  4019d6:	c3                   	retq   

00000000004019d7 <setval_367>:
  4019d7:	c7 07 89 d1 94 c0    	movl   $0xc094d189,(%rdi)
  4019dd:	c3                   	retq   

00000000004019de <getval_449>:
  4019de:	b8 89 ce 38 c9       	mov    $0xc938ce89,%eax
  4019e3:	c3                   	retq   

00000000004019e4 <addval_331>:
  4019e4:	8d 87 8d ce 08 c9    	lea    -0x36f73173(%rdi),%eax
  4019ea:	c3                   	retq   

00000000004019eb <getval_101>:
  4019eb:	b8 89 d1 38 c9       	mov    $0xc938d189,%eax
  4019f0:	c3                   	retq   

00000000004019f1 <addval_158>:
  4019f1:	8d 87 8b c2 84 c0    	lea    -0x3f7b3d75(%rdi),%eax
  4019f7:	c3                   	retq   

00000000004019f8 <setval_127>:
  4019f8:	c7 07 99 c2 20 db    	movl   $0xdb20c299,(%rdi)
  4019fe:	c3                   	retq   

00000000004019ff <addval_333>:
  4019ff:	8d 87 3f 48 81 e0    	lea    -0x1f7eb7c1(%rdi),%eax
  401a05:	c3                   	retq   

0000000000401a06 <getval_107>:
  401a06:	b8 81 c2 38 c0       	mov    $0xc038c281,%eax
  401a0b:	c3                   	retq   

0000000000401a0c <setval_272>:
  401a0c:	c7 07 48 89 e0 90    	movl   $0x90e08948,(%rdi)
  401a12:	c3                   	retq   

0000000000401a13 <end_farm>:
  401a13:	b8 01 00 00 00       	mov    $0x1,%eax
  401a18:	c3                   	retq   
  401a19:	0f 1f 80 00 00 00 00 	nopl   0x0(%rax)

0000000000401a20 <save_char>:
  401a20:	8b 05 fe 46 20 00    	mov    0x2046fe(%rip),%eax        # 606124 <gets_cnt>
  401a26:	3d ff 03 00 00       	cmp    $0x3ff,%eax
  401a2b:	7f 49                	jg     401a76 <save_char+0x56>
  401a2d:	8d 14 40             	lea    (%rax,%rax,2),%edx
  401a30:	89 f9                	mov    %edi,%ecx
  401a32:	c0 e9 04             	shr    $0x4,%cl
  401a35:	83 e1 0f             	and    $0xf,%ecx
  401a38:	0f b6 b1 e0 34 40 00 	movzbl 0x4034e0(%rcx),%esi
  401a3f:	48 63 ca             	movslq %edx,%rcx
  401a42:	40 88 b1 20 55 60 00 	mov    %sil,0x605520(%rcx)
  401a49:	8d 4a 01             	lea    0x1(%rdx),%ecx
  401a4c:	83 e7 0f             	and    $0xf,%edi
  401a4f:	0f b6 b7 e0 34 40 00 	movzbl 0x4034e0(%rdi),%esi
  401a56:	48 63 c9             	movslq %ecx,%rcx
  401a59:	40 88 b1 20 55 60 00 	mov    %sil,0x605520(%rcx)
  401a60:	83 c2 02             	add    $0x2,%edx
  401a63:	48 63 d2             	movslq %edx,%rdx
  401a66:	c6 82 20 55 60 00 20 	movb   $0x20,0x605520(%rdx)
  401a6d:	83 c0 01             	add    $0x1,%eax
  401a70:	89 05 ae 46 20 00    	mov    %eax,0x2046ae(%rip)        # 606124 <gets_cnt>
  401a76:	f3 c3                	repz retq 

0000000000401a78 <save_term>:
  401a78:	8b 05 a6 46 20 00    	mov    0x2046a6(%rip),%eax        # 606124 <gets_cnt>
  401a7e:	8d 04 40             	lea    (%rax,%rax,2),%eax
  401a81:	48 98                	cltq   
  401a83:	c6 80 20 55 60 00 00 	movb   $0x0,0x605520(%rax)
  401a8a:	c3                   	retq   

0000000000401a8b <check_fail>:
  401a8b:	48 83 ec 08          	sub    $0x8,%rsp
  401a8f:	0f be 35 92 46 20 00 	movsbl 0x204692(%rip),%esi        # 606128 <target_prefix>
  401a96:	b9 20 55 60 00       	mov    $0x605520,%ecx
  401a9b:	8b 15 57 3a 20 00    	mov    0x203a57(%rip),%edx        # 6054f8 <check_level>
  401aa1:	bf e3 31 40 00       	mov    $0x4031e3,%edi
  401aa6:	b8 00 00 00 00       	mov    $0x0,%eax
  401aab:	e8 d0 f1 ff ff       	callq  400c80 <printf@plt>
  401ab0:	bf 01 00 00 00       	mov    $0x1,%edi
  401ab5:	e8 36 f3 ff ff       	callq  400df0 <exit@plt>

0000000000401aba <Gets>:
  401aba:	41 54                	push   %r12
  401abc:	55                   	push   %rbp
  401abd:	53                   	push   %rbx
  401abe:	49 89 fc             	mov    %rdi,%r12
  401ac1:	c7 05 59 46 20 00 00 	movl   $0x0,0x204659(%rip)        # 606124 <gets_cnt>
  401ac8:	00 00 00 
  401acb:	48 89 fb             	mov    %rdi,%rbx
  401ace:	eb 11                	jmp    401ae1 <Gets+0x27>
  401ad0:	48 8d 6b 01          	lea    0x1(%rbx),%rbp
  401ad4:	88 03                	mov    %al,(%rbx)
  401ad6:	0f b6 f8             	movzbl %al,%edi
  401ad9:	e8 42 ff ff ff       	callq  401a20 <save_char>
  401ade:	48 89 eb             	mov    %rbp,%rbx
  401ae1:	48 8b 3d 08 3a 20 00 	mov    0x203a08(%rip),%rdi        # 6054f0 <infile>
  401ae8:	e8 73 f2 ff ff       	callq  400d60 <_IO_getc@plt>
  401aed:	83 f8 ff             	cmp    $0xffffffff,%eax
  401af0:	74 05                	je     401af7 <Gets+0x3d>
  401af2:	83 f8 0a             	cmp    $0xa,%eax
  401af5:	75 d9                	jne    401ad0 <Gets+0x16>
  401af7:	c6 03 00             	movb   $0x0,(%rbx)
  401afa:	b8 00 00 00 00       	mov    $0x0,%eax
  401aff:	e8 74 ff ff ff       	callq  401a78 <save_term>
  401b04:	4c 89 e0             	mov    %r12,%rax
  401b07:	5b                   	pop    %rbx
  401b08:	5d                   	pop    %rbp
  401b09:	41 5c                	pop    %r12
  401b0b:	c3                   	retq   

0000000000401b0c <notify_server>:
  401b0c:	83 3d f5 39 20 00 00 	cmpl   $0x0,0x2039f5(%rip)        # 605508 <is_checker>
  401b13:	0f 85 8e 01 00 00    	jne    401ca7 <notify_server+0x19b>
  401b19:	53                   	push   %rbx
  401b1a:	48 81 ec 10 40 00 00 	sub    $0x4010,%rsp
  401b21:	89 fb                	mov    %edi,%ebx
  401b23:	8b 05 fb 45 20 00    	mov    0x2045fb(%rip),%eax        # 606124 <gets_cnt>
  401b29:	83 c0 64             	add    $0x64,%eax
  401b2c:	3d 00 20 00 00       	cmp    $0x2000,%eax
  401b31:	7e 19                	jle    401b4c <notify_server+0x40>
  401b33:	bf 18 33 40 00       	mov    $0x403318,%edi
  401b38:	b8 00 00 00 00       	mov    $0x0,%eax
  401b3d:	e8 3e f1 ff ff       	callq  400c80 <printf@plt>
  401b42:	bf 01 00 00 00       	mov    $0x1,%edi
  401b47:	e8 a4 f2 ff ff       	callq  400df0 <exit@plt>
  401b4c:	44 0f be 0d d4 45 20 	movsbl 0x2045d4(%rip),%r9d        # 606128 <target_prefix>
  401b53:	00 
  401b54:	83 3d 4d 39 20 00 00 	cmpl   $0x0,0x20394d(%rip)        # 6054a8 <notify>
  401b5b:	74 09                	je     401b66 <notify_server+0x5a>
  401b5d:	44 8b 05 9c 39 20 00 	mov    0x20399c(%rip),%r8d        # 605500 <authkey>
  401b64:	eb 06                	jmp    401b6c <notify_server+0x60>
  401b66:	41 b8 ff ff ff ff    	mov    $0xffffffff,%r8d
  401b6c:	85 db                	test   %ebx,%ebx
  401b6e:	74 07                	je     401b77 <notify_server+0x6b>
  401b70:	b9 f9 31 40 00       	mov    $0x4031f9,%ecx
  401b75:	eb 05                	jmp    401b7c <notify_server+0x70>
  401b77:	b9 fe 31 40 00       	mov    $0x4031fe,%ecx
  401b7c:	48 c7 44 24 08 20 55 	movq   $0x605520,0x8(%rsp)
  401b83:	60 00 
  401b85:	89 34 24             	mov    %esi,(%rsp)
  401b88:	8b 15 da 35 20 00    	mov    0x2035da(%rip),%edx        # 605168 <target_id>
  401b8e:	be 03 32 40 00       	mov    $0x403203,%esi
  401b93:	48 8d bc 24 10 20 00 	lea    0x2010(%rsp),%rdi
  401b9a:	00 
  401b9b:	b8 00 00 00 00       	mov    $0x0,%eax
  401ba0:	e8 3b f2 ff ff       	callq  400de0 <sprintf@plt>
  401ba5:	83 3d fc 38 20 00 00 	cmpl   $0x0,0x2038fc(%rip)        # 6054a8 <notify>
  401bac:	74 78                	je     401c26 <notify_server+0x11a>
  401bae:	85 db                	test   %ebx,%ebx
  401bb0:	74 68                	je     401c1a <notify_server+0x10e>
  401bb2:	4c 8d 4c 24 10       	lea    0x10(%rsp),%r9
  401bb7:	41 b8 00 00 00 00    	mov    $0x0,%r8d
  401bbd:	48 8d 8c 24 10 20 00 	lea    0x2010(%rsp),%rcx
  401bc4:	00 
  401bc5:	48 8b 15 a4 35 20 00 	mov    0x2035a4(%rip),%rdx        # 605170 <lab>
  401bcc:	48 8b 35 a5 35 20 00 	mov    0x2035a5(%rip),%rsi        # 605178 <course>
  401bd3:	48 8b 3d 86 35 20 00 	mov    0x203586(%rip),%rdi        # 605160 <user_id>
  401bda:	e8 94 0f 00 00       	callq  402b73 <driver_post>
  401bdf:	85 c0                	test   %eax,%eax
  401be1:	79 1e                	jns    401c01 <notify_server+0xf5>
  401be3:	48 8d 74 24 10       	lea    0x10(%rsp),%rsi
  401be8:	bf 1f 32 40 00       	mov    $0x40321f,%edi
  401bed:	b8 00 00 00 00       	mov    $0x0,%eax
  401bf2:	e8 89 f0 ff ff       	callq  400c80 <printf@plt>
  401bf7:	bf 01 00 00 00       	mov    $0x1,%edi
  401bfc:	e8 ef f1 ff ff       	callq  400df0 <exit@plt>
  401c01:	bf 48 33 40 00       	mov    $0x403348,%edi
  401c06:	e8 45 f0 ff ff       	callq  400c50 <puts@plt>
  401c0b:	bf 2b 32 40 00       	mov    $0x40322b,%edi
  401c10:	e8 3b f0 ff ff       	callq  400c50 <puts@plt>
  401c15:	e9 85 00 00 00       	jmpq   401c9f <notify_server+0x193>
  401c1a:	bf 35 32 40 00       	mov    $0x403235,%edi
  401c1f:	e8 2c f0 ff ff       	callq  400c50 <puts@plt>
  401c24:	eb 79                	jmp    401c9f <notify_server+0x193>
  401c26:	85 db                	test   %ebx,%ebx
  401c28:	74 08                	je     401c32 <notify_server+0x126>
  401c2a:	be f9 31 40 00       	mov    $0x4031f9,%esi
  401c2f:	90                   	nop
  401c30:	eb 05                	jmp    401c37 <notify_server+0x12b>
  401c32:	be fe 31 40 00       	mov    $0x4031fe,%esi
  401c37:	bf 80 33 40 00       	mov    $0x403380,%edi
  401c3c:	b8 00 00 00 00       	mov    $0x0,%eax
  401c41:	e8 3a f0 ff ff       	callq  400c80 <printf@plt>
  401c46:	48 8b 35 13 35 20 00 	mov    0x203513(%rip),%rsi        # 605160 <user_id>
  401c4d:	bf 3c 32 40 00       	mov    $0x40323c,%edi
  401c52:	b8 00 00 00 00       	mov    $0x0,%eax
  401c57:	e8 24 f0 ff ff       	callq  400c80 <printf@plt>
  401c5c:	48 8b 35 15 35 20 00 	mov    0x203515(%rip),%rsi        # 605178 <course>
  401c63:	bf 49 32 40 00       	mov    $0x403249,%edi
  401c68:	b8 00 00 00 00       	mov    $0x0,%eax
  401c6d:	e8 0e f0 ff ff       	callq  400c80 <printf@plt>
  401c72:	48 8b 35 f7 34 20 00 	mov    0x2034f7(%rip),%rsi        # 605170 <lab>
  401c79:	bf 55 32 40 00       	mov    $0x403255,%edi
  401c7e:	b8 00 00 00 00       	mov    $0x0,%eax
  401c83:	e8 f8 ef ff ff       	callq  400c80 <printf@plt>
  401c88:	48 8d b4 24 10 20 00 	lea    0x2010(%rsp),%rsi
  401c8f:	00 
  401c90:	bf 5e 32 40 00       	mov    $0x40325e,%edi
  401c95:	b8 00 00 00 00       	mov    $0x0,%eax
  401c9a:	e8 e1 ef ff ff       	callq  400c80 <printf@plt>
  401c9f:	48 81 c4 10 40 00 00 	add    $0x4010,%rsp
  401ca6:	5b                   	pop    %rbx
  401ca7:	f3 c3                	repz retq 

0000000000401ca9 <validate>:
  401ca9:	53                   	push   %rbx
  401caa:	89 fb                	mov    %edi,%ebx
  401cac:	83 3d 55 38 20 00 00 	cmpl   $0x0,0x203855(%rip)        # 605508 <is_checker>
  401cb3:	74 60                	je     401d15 <validate+0x6c>
  401cb5:	39 3d 41 38 20 00    	cmp    %edi,0x203841(%rip)        # 6054fc <vlevel>
  401cbb:	74 14                	je     401cd1 <validate+0x28>
  401cbd:	bf 6a 32 40 00       	mov    $0x40326a,%edi
  401cc2:	e8 89 ef ff ff       	callq  400c50 <puts@plt>
  401cc7:	b8 00 00 00 00       	mov    $0x0,%eax
  401ccc:	e8 ba fd ff ff       	callq  401a8b <check_fail>
  401cd1:	8b 35 21 38 20 00    	mov    0x203821(%rip),%esi        # 6054f8 <check_level>
  401cd7:	39 fe                	cmp    %edi,%esi
  401cd9:	74 1b                	je     401cf6 <validate+0x4d>
  401cdb:	89 fa                	mov    %edi,%edx
  401cdd:	bf a8 33 40 00       	mov    $0x4033a8,%edi
  401ce2:	b8 00 00 00 00       	mov    $0x0,%eax
  401ce7:	e8 94 ef ff ff       	callq  400c80 <printf@plt>
  401cec:	b8 00 00 00 00       	mov    $0x0,%eax
  401cf1:	e8 95 fd ff ff       	callq  401a8b <check_fail>
  401cf6:	0f be 35 2b 44 20 00 	movsbl 0x20442b(%rip),%esi        # 606128 <target_prefix>
  401cfd:	b9 20 55 60 00       	mov    $0x605520,%ecx
  401d02:	89 fa                	mov    %edi,%edx
  401d04:	bf 88 32 40 00       	mov    $0x403288,%edi
  401d09:	b8 00 00 00 00       	mov    $0x0,%eax
  401d0e:	e8 6d ef ff ff       	callq  400c80 <printf@plt>
  401d13:	eb 44                	jmp    401d59 <validate+0xb0>
  401d15:	39 3d e1 37 20 00    	cmp    %edi,0x2037e1(%rip)        # 6054fc <vlevel>
  401d1b:	74 18                	je     401d35 <validate+0x8c>
  401d1d:	bf 6a 32 40 00       	mov    $0x40326a,%edi
  401d22:	e8 29 ef ff ff       	callq  400c50 <puts@plt>
  401d27:	89 de                	mov    %ebx,%esi
  401d29:	bf 00 00 00 00       	mov    $0x0,%edi
  401d2e:	e8 d9 fd ff ff       	callq  401b0c <notify_server>
  401d33:	eb 24                	jmp    401d59 <validate+0xb0>
  401d35:	0f be 15 ec 43 20 00 	movsbl 0x2043ec(%rip),%edx        # 606128 <target_prefix>
  401d3c:	89 fe                	mov    %edi,%esi
  401d3e:	bf d0 33 40 00       	mov    $0x4033d0,%edi
  401d43:	b8 00 00 00 00       	mov    $0x0,%eax
  401d48:	e8 33 ef ff ff       	callq  400c80 <printf@plt>
  401d4d:	89 de                	mov    %ebx,%esi
  401d4f:	bf 01 00 00 00       	mov    $0x1,%edi
  401d54:	e8 b3 fd ff ff       	callq  401b0c <notify_server>
  401d59:	5b                   	pop    %rbx
  401d5a:	c3                   	retq   

0000000000401d5b <fail>:
  401d5b:	48 83 ec 08          	sub    $0x8,%rsp
  401d5f:	83 3d a2 37 20 00 00 	cmpl   $0x0,0x2037a2(%rip)        # 605508 <is_checker>
  401d66:	74 0a                	je     401d72 <fail+0x17>
  401d68:	b8 00 00 00 00       	mov    $0x0,%eax
  401d6d:	e8 19 fd ff ff       	callq  401a8b <check_fail>
  401d72:	89 fe                	mov    %edi,%esi
  401d74:	bf 00 00 00 00       	mov    $0x0,%edi
  401d79:	e8 8e fd ff ff       	callq  401b0c <notify_server>
  401d7e:	48 83 c4 08          	add    $0x8,%rsp
  401d82:	c3                   	retq   

0000000000401d83 <bushandler>:
  401d83:	48 83 ec 08          	sub    $0x8,%rsp
  401d87:	83 3d 7a 37 20 00 00 	cmpl   $0x0,0x20377a(%rip)        # 605508 <is_checker>
  401d8e:	74 14                	je     401da4 <bushandler+0x21>
  401d90:	bf 9d 32 40 00       	mov    $0x40329d,%edi
  401d95:	e8 b6 ee ff ff       	callq  400c50 <puts@plt>
  401d9a:	b8 00 00 00 00       	mov    $0x0,%eax
  401d9f:	e8 e7 fc ff ff       	callq  401a8b <check_fail>
  401da4:	bf 08 34 40 00       	mov    $0x403408,%edi
  401da9:	e8 a2 ee ff ff       	callq  400c50 <puts@plt>
  401dae:	bf a7 32 40 00       	mov    $0x4032a7,%edi
  401db3:	e8 98 ee ff ff       	callq  400c50 <puts@plt>
  401db8:	be 00 00 00 00       	mov    $0x0,%esi
  401dbd:	bf 00 00 00 00       	mov    $0x0,%edi
  401dc2:	e8 45 fd ff ff       	callq  401b0c <notify_server>
  401dc7:	bf 01 00 00 00       	mov    $0x1,%edi
  401dcc:	e8 1f f0 ff ff       	callq  400df0 <exit@plt>

0000000000401dd1 <seghandler>:
  401dd1:	48 83 ec 08          	sub    $0x8,%rsp
  401dd5:	83 3d 2c 37 20 00 00 	cmpl   $0x0,0x20372c(%rip)        # 605508 <is_checker>
  401ddc:	74 14                	je     401df2 <seghandler+0x21>
  401dde:	bf bd 32 40 00       	mov    $0x4032bd,%edi
  401de3:	e8 68 ee ff ff       	callq  400c50 <puts@plt>
  401de8:	b8 00 00 00 00       	mov    $0x0,%eax
  401ded:	e8 99 fc ff ff       	callq  401a8b <check_fail>
  401df2:	bf 28 34 40 00       	mov    $0x403428,%edi
  401df7:	e8 54 ee ff ff       	callq  400c50 <puts@plt>
  401dfc:	bf a7 32 40 00       	mov    $0x4032a7,%edi
  401e01:	e8 4a ee ff ff       	callq  400c50 <puts@plt>
  401e06:	be 00 00 00 00       	mov    $0x0,%esi
  401e0b:	bf 00 00 00 00       	mov    $0x0,%edi
  401e10:	e8 f7 fc ff ff       	callq  401b0c <notify_server>
  401e15:	bf 01 00 00 00       	mov    $0x1,%edi
  401e1a:	e8 d1 ef ff ff       	callq  400df0 <exit@plt>

0000000000401e1f <illegalhandler>:
  401e1f:	48 83 ec 08          	sub    $0x8,%rsp
  401e23:	83 3d de 36 20 00 00 	cmpl   $0x0,0x2036de(%rip)        # 605508 <is_checker>
  401e2a:	74 14                	je     401e40 <illegalhandler+0x21>
  401e2c:	bf d0 32 40 00       	mov    $0x4032d0,%edi
  401e31:	e8 1a ee ff ff       	callq  400c50 <puts@plt>
  401e36:	b8 00 00 00 00       	mov    $0x0,%eax
  401e3b:	e8 4b fc ff ff       	callq  401a8b <check_fail>
  401e40:	bf 50 34 40 00       	mov    $0x403450,%edi
  401e45:	e8 06 ee ff ff       	callq  400c50 <puts@plt>
  401e4a:	bf a7 32 40 00       	mov    $0x4032a7,%edi
  401e4f:	e8 fc ed ff ff       	callq  400c50 <puts@plt>
  401e54:	be 00 00 00 00       	mov    $0x0,%esi
  401e59:	bf 00 00 00 00       	mov    $0x0,%edi
  401e5e:	e8 a9 fc ff ff       	callq  401b0c <notify_server>
  401e63:	bf 01 00 00 00       	mov    $0x1,%edi
  401e68:	e8 83 ef ff ff       	callq  400df0 <exit@plt>

0000000000401e6d <sigalrmhandler>:
  401e6d:	48 83 ec 08          	sub    $0x8,%rsp
  401e71:	83 3d 90 36 20 00 00 	cmpl   $0x0,0x203690(%rip)        # 605508 <is_checker>
  401e78:	74 14                	je     401e8e <sigalrmhandler+0x21>
  401e7a:	bf e4 32 40 00       	mov    $0x4032e4,%edi
  401e7f:	e8 cc ed ff ff       	callq  400c50 <puts@plt>
  401e84:	b8 00 00 00 00       	mov    $0x0,%eax
  401e89:	e8 fd fb ff ff       	callq  401a8b <check_fail>
  401e8e:	be 05 00 00 00       	mov    $0x5,%esi
  401e93:	bf 80 34 40 00       	mov    $0x403480,%edi
  401e98:	b8 00 00 00 00       	mov    $0x0,%eax
  401e9d:	e8 de ed ff ff       	callq  400c80 <printf@plt>
  401ea2:	be 00 00 00 00       	mov    $0x0,%esi
  401ea7:	bf 00 00 00 00       	mov    $0x0,%edi
  401eac:	e8 5b fc ff ff       	callq  401b0c <notify_server>
  401eb1:	bf 01 00 00 00       	mov    $0x1,%edi
  401eb6:	e8 35 ef ff ff       	callq  400df0 <exit@plt>

0000000000401ebb <launch>:
  401ebb:	55                   	push   %rbp
  401ebc:	48 89 e5             	mov    %rsp,%rbp
  401ebf:	48 89 fa             	mov    %rdi,%rdx
  401ec2:	48 8d 47 1e          	lea    0x1e(%rdi),%rax
  401ec6:	48 83 e0 f0          	and    $0xfffffffffffffff0,%rax
  401eca:	48 29 c4             	sub    %rax,%rsp
  401ecd:	48 8d 7c 24 0f       	lea    0xf(%rsp),%rdi
  401ed2:	48 83 e7 f0          	and    $0xfffffffffffffff0,%rdi
  401ed6:	be f4 00 00 00       	mov    $0xf4,%esi
  401edb:	e8 b0 ed ff ff       	callq  400c90 <memset@plt>
  401ee0:	48 8b 05 d9 35 20 00 	mov    0x2035d9(%rip),%rax        # 6054c0 <stdin@@GLIBC_2.2.5>
  401ee7:	48 39 05 02 36 20 00 	cmp    %rax,0x203602(%rip)        # 6054f0 <infile>
  401eee:	75 0f                	jne    401eff <launch+0x44>
  401ef0:	bf ec 32 40 00       	mov    $0x4032ec,%edi
  401ef5:	b8 00 00 00 00       	mov    $0x0,%eax
  401efa:	e8 81 ed ff ff       	callq  400c80 <printf@plt>
  401eff:	c7 05 f3 35 20 00 00 	movl   $0x0,0x2035f3(%rip)        # 6054fc <vlevel>
  401f06:	00 00 00 
  401f09:	b8 00 00 00 00       	mov    $0x0,%eax
  401f0e:	e8 c1 f9 ff ff       	callq  4018d4 <test>
  401f13:	83 3d ee 35 20 00 00 	cmpl   $0x0,0x2035ee(%rip)        # 605508 <is_checker>
  401f1a:	74 14                	je     401f30 <launch+0x75>
  401f1c:	bf f9 32 40 00       	mov    $0x4032f9,%edi
  401f21:	e8 2a ed ff ff       	callq  400c50 <puts@plt>
  401f26:	b8 00 00 00 00       	mov    $0x0,%eax
  401f2b:	e8 5b fb ff ff       	callq  401a8b <check_fail>
  401f30:	bf 04 33 40 00       	mov    $0x403304,%edi
  401f35:	e8 16 ed ff ff       	callq  400c50 <puts@plt>
  401f3a:	c9                   	leaveq 
  401f3b:	c3                   	retq   

0000000000401f3c <stable_launch>:
  401f3c:	53                   	push   %rbx
  401f3d:	48 89 3d a4 35 20 00 	mov    %rdi,0x2035a4(%rip)        # 6054e8 <global_offset>
  401f44:	41 b9 00 00 00 00    	mov    $0x0,%r9d
  401f4a:	41 b8 00 00 00 00    	mov    $0x0,%r8d
  401f50:	b9 32 01 00 00       	mov    $0x132,%ecx
  401f55:	ba 07 00 00 00       	mov    $0x7,%edx
  401f5a:	be 00 00 10 00       	mov    $0x100000,%esi
  401f5f:	bf 00 60 58 55       	mov    $0x55586000,%edi
  401f64:	e8 07 ed ff ff       	callq  400c70 <mmap@plt>
  401f69:	48 89 c3             	mov    %rax,%rbx
  401f6c:	48 3d 00 60 58 55    	cmp    $0x55586000,%rax
  401f72:	74 32                	je     401fa6 <stable_launch+0x6a>
  401f74:	be 00 00 10 00       	mov    $0x100000,%esi
  401f79:	48 89 c7             	mov    %rax,%rdi
  401f7c:	e8 ff ed ff ff       	callq  400d80 <munmap@plt>
  401f81:	ba 00 60 58 55       	mov    $0x55586000,%edx
  401f86:	be b8 34 40 00       	mov    $0x4034b8,%esi
  401f8b:	48 8b 3d 3e 35 20 00 	mov    0x20353e(%rip),%rdi        # 6054d0 <stderr@@GLIBC_2.2.5>
  401f92:	b8 00 00 00 00       	mov    $0x0,%eax
  401f97:	e8 64 ed ff ff       	callq  400d00 <fprintf@plt>
  401f9c:	bf 01 00 00 00       	mov    $0x1,%edi
  401fa1:	e8 4a ee ff ff       	callq  400df0 <exit@plt>
  401fa6:	48 8d 90 f8 ff 0f 00 	lea    0xffff8(%rax),%rdx
  401fad:	48 89 15 7c 41 20 00 	mov    %rdx,0x20417c(%rip)        # 606130 <stack_top>
  401fb4:	48 89 e0             	mov    %rsp,%rax
  401fb7:	48 89 d4             	mov    %rdx,%rsp
  401fba:	48 89 c2             	mov    %rax,%rdx
  401fbd:	48 89 15 1c 35 20 00 	mov    %rdx,0x20351c(%rip)        # 6054e0 <global_save_stack>
  401fc4:	48 8b 3d 1d 35 20 00 	mov    0x20351d(%rip),%rdi        # 6054e8 <global_offset>
  401fcb:	e8 eb fe ff ff       	callq  401ebb <launch>
  401fd0:	48 8b 05 09 35 20 00 	mov    0x203509(%rip),%rax        # 6054e0 <global_save_stack>
  401fd7:	48 89 c4             	mov    %rax,%rsp
  401fda:	be 00 00 10 00       	mov    $0x100000,%esi
  401fdf:	48 89 df             	mov    %rbx,%rdi
  401fe2:	e8 99 ed ff ff       	callq  400d80 <munmap@plt>
  401fe7:	5b                   	pop    %rbx
  401fe8:	c3                   	retq   
  401fe9:	0f 1f 80 00 00 00 00 	nopl   0x0(%rax)

0000000000401ff0 <rio_readinitb>:
  401ff0:	89 37                	mov    %esi,(%rdi)
  401ff2:	c7 47 04 00 00 00 00 	movl   $0x0,0x4(%rdi)
  401ff9:	48 8d 47 10          	lea    0x10(%rdi),%rax
  401ffd:	48 89 47 08          	mov    %rax,0x8(%rdi)
  402001:	c3                   	retq   

0000000000402002 <sigalrm_handler>:
  402002:	48 83 ec 08          	sub    $0x8,%rsp
  402006:	ba 00 00 00 00       	mov    $0x0,%edx
  40200b:	be f0 34 40 00       	mov    $0x4034f0,%esi
  402010:	48 8b 3d b9 34 20 00 	mov    0x2034b9(%rip),%rdi        # 6054d0 <stderr@@GLIBC_2.2.5>
  402017:	b8 00 00 00 00       	mov    $0x0,%eax
  40201c:	e8 df ec ff ff       	callq  400d00 <fprintf@plt>
  402021:	bf 01 00 00 00       	mov    $0x1,%edi
  402026:	e8 c5 ed ff ff       	callq  400df0 <exit@plt>

000000000040202b <urlencode>:
  40202b:	41 54                	push   %r12
  40202d:	55                   	push   %rbp
  40202e:	53                   	push   %rbx
  40202f:	48 83 ec 10          	sub    $0x10,%rsp
  402033:	48 89 fb             	mov    %rdi,%rbx
  402036:	48 89 f5             	mov    %rsi,%rbp
  402039:	b8 00 00 00 00       	mov    $0x0,%eax
  40203e:	48 c7 c1 ff ff ff ff 	mov    $0xffffffffffffffff,%rcx
  402045:	f2 ae                	repnz scas %es:(%rdi),%al
  402047:	48 f7 d1             	not    %rcx
  40204a:	8d 41 ff             	lea    -0x1(%rcx),%eax
  40204d:	e9 93 00 00 00       	jmpq   4020e5 <urlencode+0xba>
  402052:	0f b6 13             	movzbl (%rbx),%edx
  402055:	80 fa 2a             	cmp    $0x2a,%dl
  402058:	0f 94 c1             	sete   %cl
  40205b:	80 fa 2d             	cmp    $0x2d,%dl
  40205e:	0f 94 c0             	sete   %al
  402061:	08 c1                	or     %al,%cl
  402063:	75 1f                	jne    402084 <urlencode+0x59>
  402065:	80 fa 2e             	cmp    $0x2e,%dl
  402068:	74 1a                	je     402084 <urlencode+0x59>
  40206a:	80 fa 5f             	cmp    $0x5f,%dl
  40206d:	74 15                	je     402084 <urlencode+0x59>
  40206f:	8d 42 d0             	lea    -0x30(%rdx),%eax
  402072:	3c 09                	cmp    $0x9,%al
  402074:	76 0e                	jbe    402084 <urlencode+0x59>
  402076:	8d 42 bf             	lea    -0x41(%rdx),%eax
  402079:	3c 19                	cmp    $0x19,%al
  40207b:	76 07                	jbe    402084 <urlencode+0x59>
  40207d:	8d 42 9f             	lea    -0x61(%rdx),%eax
  402080:	3c 19                	cmp    $0x19,%al
  402082:	77 09                	ja     40208d <urlencode+0x62>
  402084:	88 55 00             	mov    %dl,0x0(%rbp)
  402087:	48 8d 6d 01          	lea    0x1(%rbp),%rbp
  40208b:	eb 51                	jmp    4020de <urlencode+0xb3>
  40208d:	80 fa 20             	cmp    $0x20,%dl
  402090:	75 0a                	jne    40209c <urlencode+0x71>
  402092:	c6 45 00 2b          	movb   $0x2b,0x0(%rbp)
  402096:	48 8d 6d 01          	lea    0x1(%rbp),%rbp
  40209a:	eb 42                	jmp    4020de <urlencode+0xb3>
  40209c:	8d 42 e0             	lea    -0x20(%rdx),%eax
  40209f:	3c 5f                	cmp    $0x5f,%al
  4020a1:	0f 96 c1             	setbe  %cl
  4020a4:	80 fa 09             	cmp    $0x9,%dl
  4020a7:	0f 94 c0             	sete   %al
  4020aa:	08 c1                	or     %al,%cl
  4020ac:	74 45                	je     4020f3 <urlencode+0xc8>
  4020ae:	0f b6 d2             	movzbl %dl,%edx
  4020b1:	be 88 35 40 00       	mov    $0x403588,%esi
  4020b6:	48 89 e7             	mov    %rsp,%rdi
  4020b9:	b8 00 00 00 00       	mov    $0x0,%eax
  4020be:	e8 1d ed ff ff       	callq  400de0 <sprintf@plt>
  4020c3:	0f b6 04 24          	movzbl (%rsp),%eax
  4020c7:	88 45 00             	mov    %al,0x0(%rbp)
  4020ca:	0f b6 44 24 01       	movzbl 0x1(%rsp),%eax
  4020cf:	88 45 01             	mov    %al,0x1(%rbp)
  4020d2:	0f b6 44 24 02       	movzbl 0x2(%rsp),%eax
  4020d7:	88 45 02             	mov    %al,0x2(%rbp)
  4020da:	48 8d 6d 03          	lea    0x3(%rbp),%rbp
  4020de:	48 83 c3 01          	add    $0x1,%rbx
  4020e2:	44 89 e0             	mov    %r12d,%eax
  4020e5:	44 8d 60 ff          	lea    -0x1(%rax),%r12d
  4020e9:	85 c0                	test   %eax,%eax
  4020eb:	0f 85 61 ff ff ff    	jne    402052 <urlencode+0x27>
  4020f1:	eb 05                	jmp    4020f8 <urlencode+0xcd>
  4020f3:	b8 ff ff ff ff       	mov    $0xffffffff,%eax
  4020f8:	48 83 c4 10          	add    $0x10,%rsp
  4020fc:	5b                   	pop    %rbx
  4020fd:	5d                   	pop    %rbp
  4020fe:	41 5c                	pop    %r12
  402100:	c3                   	retq   

0000000000402101 <rio_writen>:
  402101:	41 55                	push   %r13
  402103:	41 54                	push   %r12
  402105:	55                   	push   %rbp
  402106:	53                   	push   %rbx
  402107:	48 83 ec 08          	sub    $0x8,%rsp
  40210b:	41 89 fc             	mov    %edi,%r12d
  40210e:	48 89 f5             	mov    %rsi,%rbp
  402111:	49 89 d5             	mov    %rdx,%r13
  402114:	48 89 d3             	mov    %rdx,%rbx
  402117:	eb 28                	jmp    402141 <rio_writen+0x40>
  402119:	48 89 da             	mov    %rbx,%rdx
  40211c:	48 89 ee             	mov    %rbp,%rsi
  40211f:	44 89 e7             	mov    %r12d,%edi
  402122:	e8 39 eb ff ff       	callq  400c60 <write@plt>
  402127:	48 85 c0             	test   %rax,%rax
  40212a:	7f 0f                	jg     40213b <rio_writen+0x3a>
  40212c:	e8 df ea ff ff       	callq  400c10 <__errno_location@plt>
  402131:	83 38 04             	cmpl   $0x4,(%rax)
  402134:	75 15                	jne    40214b <rio_writen+0x4a>
  402136:	b8 00 00 00 00       	mov    $0x0,%eax
  40213b:	48 29 c3             	sub    %rax,%rbx
  40213e:	48 01 c5             	add    %rax,%rbp
  402141:	48 85 db             	test   %rbx,%rbx
  402144:	75 d3                	jne    402119 <rio_writen+0x18>
  402146:	4c 89 e8             	mov    %r13,%rax
  402149:	eb 07                	jmp    402152 <rio_writen+0x51>
  40214b:	48 c7 c0 ff ff ff ff 	mov    $0xffffffffffffffff,%rax
  402152:	48 83 c4 08          	add    $0x8,%rsp
  402156:	5b                   	pop    %rbx
  402157:	5d                   	pop    %rbp
  402158:	41 5c                	pop    %r12
  40215a:	41 5d                	pop    %r13
  40215c:	c3                   	retq   

000000000040215d <rio_read>:
  40215d:	41 56                	push   %r14
  40215f:	41 55                	push   %r13
  402161:	41 54                	push   %r12
  402163:	55                   	push   %rbp
  402164:	53                   	push   %rbx
  402165:	48 89 fb             	mov    %rdi,%rbx
  402168:	49 89 f6             	mov    %rsi,%r14
  40216b:	49 89 d5             	mov    %rdx,%r13
  40216e:	4c 8d 67 10          	lea    0x10(%rdi),%r12
  402172:	eb 2a                	jmp    40219e <rio_read+0x41>
  402174:	ba 00 20 00 00       	mov    $0x2000,%edx
  402179:	4c 89 e6             	mov    %r12,%rsi
  40217c:	8b 3b                	mov    (%rbx),%edi
  40217e:	e8 3d eb ff ff       	callq  400cc0 <read@plt>
  402183:	89 43 04             	mov    %eax,0x4(%rbx)
  402186:	85 c0                	test   %eax,%eax
  402188:	79 0c                	jns    402196 <rio_read+0x39>
  40218a:	e8 81 ea ff ff       	callq  400c10 <__errno_location@plt>
  40218f:	83 38 04             	cmpl   $0x4,(%rax)
  402192:	74 0a                	je     40219e <rio_read+0x41>
  402194:	eb 37                	jmp    4021cd <rio_read+0x70>
  402196:	85 c0                	test   %eax,%eax
  402198:	74 3c                	je     4021d6 <rio_read+0x79>
  40219a:	4c 89 63 08          	mov    %r12,0x8(%rbx)
  40219e:	8b 6b 04             	mov    0x4(%rbx),%ebp
  4021a1:	85 ed                	test   %ebp,%ebp
  4021a3:	7e cf                	jle    402174 <rio_read+0x17>
  4021a5:	89 e8                	mov    %ebp,%eax
  4021a7:	4c 39 e8             	cmp    %r13,%rax
  4021aa:	72 03                	jb     4021af <rio_read+0x52>
  4021ac:	44 89 ed             	mov    %r13d,%ebp
  4021af:	4c 63 e5             	movslq %ebp,%r12
  4021b2:	48 8b 73 08          	mov    0x8(%rbx),%rsi
  4021b6:	4c 89 e2             	mov    %r12,%rdx
  4021b9:	4c 89 f7             	mov    %r14,%rdi
  4021bc:	e8 6f eb ff ff       	callq  400d30 <memcpy@plt>
  4021c1:	4c 01 63 08          	add    %r12,0x8(%rbx)
  4021c5:	29 6b 04             	sub    %ebp,0x4(%rbx)
  4021c8:	4c 89 e0             	mov    %r12,%rax
  4021cb:	eb 0e                	jmp    4021db <rio_read+0x7e>
  4021cd:	48 c7 c0 ff ff ff ff 	mov    $0xffffffffffffffff,%rax
  4021d4:	eb 05                	jmp    4021db <rio_read+0x7e>
  4021d6:	b8 00 00 00 00       	mov    $0x0,%eax
  4021db:	5b                   	pop    %rbx
  4021dc:	5d                   	pop    %rbp
  4021dd:	41 5c                	pop    %r12
  4021df:	41 5d                	pop    %r13
  4021e1:	41 5e                	pop    %r14
  4021e3:	c3                   	retq   

00000000004021e4 <rio_readlineb>:
  4021e4:	41 55                	push   %r13
  4021e6:	41 54                	push   %r12
  4021e8:	55                   	push   %rbp
  4021e9:	53                   	push   %rbx
  4021ea:	48 83 ec 18          	sub    $0x18,%rsp
  4021ee:	49 89 fd             	mov    %rdi,%r13
  4021f1:	48 89 f5             	mov    %rsi,%rbp
  4021f4:	49 89 d4             	mov    %rdx,%r12
  4021f7:	bb 01 00 00 00       	mov    $0x1,%ebx
  4021fc:	eb 3d                	jmp    40223b <rio_readlineb+0x57>
  4021fe:	ba 01 00 00 00       	mov    $0x1,%edx
  402203:	48 8d 74 24 0f       	lea    0xf(%rsp),%rsi
  402208:	4c 89 ef             	mov    %r13,%rdi
  40220b:	e8 4d ff ff ff       	callq  40215d <rio_read>
  402210:	83 f8 01             	cmp    $0x1,%eax
  402213:	75 12                	jne    402227 <rio_readlineb+0x43>
  402215:	48 8d 55 01          	lea    0x1(%rbp),%rdx
  402219:	0f b6 44 24 0f       	movzbl 0xf(%rsp),%eax
  40221e:	88 45 00             	mov    %al,0x0(%rbp)
  402221:	3c 0a                	cmp    $0xa,%al
  402223:	75 0f                	jne    402234 <rio_readlineb+0x50>
  402225:	eb 1b                	jmp    402242 <rio_readlineb+0x5e>
  402227:	85 c0                	test   %eax,%eax
  402229:	75 23                	jne    40224e <rio_readlineb+0x6a>
  40222b:	48 83 fb 01          	cmp    $0x1,%rbx
  40222f:	90                   	nop
  402230:	75 13                	jne    402245 <rio_readlineb+0x61>
  402232:	eb 23                	jmp    402257 <rio_readlineb+0x73>
  402234:	48 83 c3 01          	add    $0x1,%rbx
  402238:	48 89 d5             	mov    %rdx,%rbp
  40223b:	4c 39 e3             	cmp    %r12,%rbx
  40223e:	72 be                	jb     4021fe <rio_readlineb+0x1a>
  402240:	eb 03                	jmp    402245 <rio_readlineb+0x61>
  402242:	48 89 d5             	mov    %rdx,%rbp
  402245:	c6 45 00 00          	movb   $0x0,0x0(%rbp)
  402249:	48 89 d8             	mov    %rbx,%rax
  40224c:	eb 0e                	jmp    40225c <rio_readlineb+0x78>
  40224e:	48 c7 c0 ff ff ff ff 	mov    $0xffffffffffffffff,%rax
  402255:	eb 05                	jmp    40225c <rio_readlineb+0x78>
  402257:	b8 00 00 00 00       	mov    $0x0,%eax
  40225c:	48 83 c4 18          	add    $0x18,%rsp
  402260:	5b                   	pop    %rbx
  402261:	5d                   	pop    %rbp
  402262:	41 5c                	pop    %r12
  402264:	41 5d                	pop    %r13
  402266:	c3                   	retq   

0000000000402267 <submitr>:
  402267:	41 57                	push   %r15
  402269:	41 56                	push   %r14
  40226b:	41 55                	push   %r13
  40226d:	41 54                	push   %r12
  40226f:	55                   	push   %rbp
  402270:	53                   	push   %rbx
  402271:	48 81 ec 48 a0 00 00 	sub    $0xa048,%rsp
  402278:	49 89 fc             	mov    %rdi,%r12
  40227b:	89 74 24 04          	mov    %esi,0x4(%rsp)
  40227f:	49 89 d7             	mov    %rdx,%r15
  402282:	49 89 ce             	mov    %rcx,%r14
  402285:	4c 89 44 24 08       	mov    %r8,0x8(%rsp)
  40228a:	4d 89 cd             	mov    %r9,%r13
  40228d:	48 8b 9c 24 80 a0 00 	mov    0xa080(%rsp),%rbx
  402294:	00 
  402295:	c7 84 24 1c 20 00 00 	movl   $0x0,0x201c(%rsp)
  40229c:	00 00 00 00 
  4022a0:	ba 00 00 00 00       	mov    $0x0,%edx
  4022a5:	be 01 00 00 00       	mov    $0x1,%esi
  4022aa:	bf 02 00 00 00       	mov    $0x2,%edi
  4022af:	e8 5c eb ff ff       	callq  400e10 <socket@plt>
  4022b4:	89 c5                	mov    %eax,%ebp
  4022b6:	85 c0                	test   %eax,%eax
  4022b8:	79 4e                	jns    402308 <submitr+0xa1>
  4022ba:	48 b8 45 72 72 6f 72 	movabs $0x43203a726f727245,%rax
  4022c1:	3a 20 43 
  4022c4:	48 89 03             	mov    %rax,(%rbx)
  4022c7:	48 b8 6c 69 65 6e 74 	movabs $0x6e7520746e65696c,%rax
  4022ce:	20 75 6e 
  4022d1:	48 89 43 08          	mov    %rax,0x8(%rbx)
  4022d5:	48 b8 61 62 6c 65 20 	movabs $0x206f7420656c6261,%rax
  4022dc:	74 6f 20 
  4022df:	48 89 43 10          	mov    %rax,0x10(%rbx)
  4022e3:	48 b8 63 72 65 61 74 	movabs $0x7320657461657263,%rax
  4022ea:	65 20 73 
  4022ed:	48 89 43 18          	mov    %rax,0x18(%rbx)
  4022f1:	c7 43 20 6f 63 6b 65 	movl   $0x656b636f,0x20(%rbx)
  4022f8:	66 c7 43 24 74 00    	movw   $0x74,0x24(%rbx)
  4022fe:	b8 ff ff ff ff       	mov    $0xffffffff,%eax
  402303:	e9 68 06 00 00       	jmpq   402970 <submitr+0x709>
  402308:	4c 89 e7             	mov    %r12,%rdi
  40230b:	e8 e0 e9 ff ff       	callq  400cf0 <gethostbyname@plt>
  402310:	48 85 c0             	test   %rax,%rax
  402313:	75 67                	jne    40237c <submitr+0x115>
  402315:	48 b8 45 72 72 6f 72 	movabs $0x44203a726f727245,%rax
  40231c:	3a 20 44 
  40231f:	48 89 03             	mov    %rax,(%rbx)
  402322:	48 b8 4e 53 20 69 73 	movabs $0x6e7520736920534e,%rax
  402329:	20 75 6e 
  40232c:	48 89 43 08          	mov    %rax,0x8(%rbx)
  402330:	48 b8 61 62 6c 65 20 	movabs $0x206f7420656c6261,%rax
  402337:	74 6f 20 
  40233a:	48 89 43 10          	mov    %rax,0x10(%rbx)
  40233e:	48 b8 72 65 73 6f 6c 	movabs $0x2065766c6f736572,%rax
  402345:	76 65 20 
  402348:	48 89 43 18          	mov    %rax,0x18(%rbx)
  40234c:	48 b8 73 65 72 76 65 	movabs $0x6120726576726573,%rax
  402353:	72 20 61 
  402356:	48 89 43 20          	mov    %rax,0x20(%rbx)
  40235a:	c7 43 28 64 64 72 65 	movl   $0x65726464,0x28(%rbx)
  402361:	66 c7 43 2c 73 73    	movw   $0x7373,0x2c(%rbx)
  402367:	c6 43 2e 00          	movb   $0x0,0x2e(%rbx)
  40236b:	89 ef                	mov    %ebp,%edi
  40236d:	e8 3e e9 ff ff       	callq  400cb0 <close@plt>
  402372:	b8 ff ff ff ff       	mov    $0xffffffff,%eax
  402377:	e9 f4 05 00 00       	jmpq   402970 <submitr+0x709>
  40237c:	48 c7 84 24 30 a0 00 	movq   $0x0,0xa030(%rsp)
  402383:	00 00 00 00 00 
  402388:	48 c7 84 24 38 a0 00 	movq   $0x0,0xa038(%rsp)
  40238f:	00 00 00 00 00 
  402394:	66 c7 84 24 30 a0 00 	movw   $0x2,0xa030(%rsp)
  40239b:	00 02 00 
  40239e:	48 8b 48 18          	mov    0x18(%rax),%rcx
  4023a2:	48 63 50 14          	movslq 0x14(%rax),%rdx
  4023a6:	48 8d b4 24 34 a0 00 	lea    0xa034(%rsp),%rsi
  4023ad:	00 
  4023ae:	48 8b 39             	mov    (%rcx),%rdi
  4023b1:	e8 da e9 ff ff       	callq  400d90 <bcopy@plt>
  4023b6:	0f b7 44 24 04       	movzwl 0x4(%rsp),%eax
  4023bb:	66 c1 c8 08          	ror    $0x8,%ax
  4023bf:	66 89 84 24 32 a0 00 	mov    %ax,0xa032(%rsp)
  4023c6:	00 
  4023c7:	ba 10 00 00 00       	mov    $0x10,%edx
  4023cc:	48 8d b4 24 30 a0 00 	lea    0xa030(%rsp),%rsi
  4023d3:	00 
  4023d4:	89 ef                	mov    %ebp,%edi
  4023d6:	e8 25 ea ff ff       	callq  400e00 <connect@plt>
  4023db:	85 c0                	test   %eax,%eax
  4023dd:	79 59                	jns    402438 <submitr+0x1d1>
  4023df:	48 b8 45 72 72 6f 72 	movabs $0x55203a726f727245,%rax
  4023e6:	3a 20 55 
  4023e9:	48 89 03             	mov    %rax,(%rbx)
  4023ec:	48 b8 6e 61 62 6c 65 	movabs $0x6f7420656c62616e,%rax
  4023f3:	20 74 6f 
  4023f6:	48 89 43 08          	mov    %rax,0x8(%rbx)
  4023fa:	48 b8 20 63 6f 6e 6e 	movabs $0x7463656e6e6f6320,%rax
  402401:	65 63 74 
  402404:	48 89 43 10          	mov    %rax,0x10(%rbx)
  402408:	48 b8 20 74 6f 20 74 	movabs $0x20656874206f7420,%rax
  40240f:	68 65 20 
  402412:	48 89 43 18          	mov    %rax,0x18(%rbx)
  402416:	c7 43 20 73 65 72 76 	movl   $0x76726573,0x20(%rbx)
  40241d:	66 c7 43 24 65 72    	movw   $0x7265,0x24(%rbx)
  402423:	c6 43 26 00          	movb   $0x0,0x26(%rbx)
  402427:	89 ef                	mov    %ebp,%edi
  402429:	e8 82 e8 ff ff       	callq  400cb0 <close@plt>
  40242e:	b8 ff ff ff ff       	mov    $0xffffffff,%eax
  402433:	e9 38 05 00 00       	jmpq   402970 <submitr+0x709>
  402438:	48 c7 c2 ff ff ff ff 	mov    $0xffffffffffffffff,%rdx
  40243f:	4c 89 ef             	mov    %r13,%rdi
  402442:	b8 00 00 00 00       	mov    $0x0,%eax
  402447:	48 89 d1             	mov    %rdx,%rcx
  40244a:	f2 ae                	repnz scas %es:(%rdi),%al
  40244c:	48 f7 d1             	not    %rcx
  40244f:	48 89 ce             	mov    %rcx,%rsi
  402452:	4c 89 ff             	mov    %r15,%rdi
  402455:	48 89 d1             	mov    %rdx,%rcx
  402458:	f2 ae                	repnz scas %es:(%rdi),%al
  40245a:	48 f7 d1             	not    %rcx
  40245d:	49 89 c8             	mov    %rcx,%r8
  402460:	4c 89 f7             	mov    %r14,%rdi
  402463:	48 89 d1             	mov    %rdx,%rcx
  402466:	f2 ae                	repnz scas %es:(%rdi),%al
  402468:	49 29 c8             	sub    %rcx,%r8
  40246b:	48 8b 7c 24 08       	mov    0x8(%rsp),%rdi
  402470:	48 89 d1             	mov    %rdx,%rcx
  402473:	f2 ae                	repnz scas %es:(%rdi),%al
  402475:	49 29 c8             	sub    %rcx,%r8
  402478:	48 8d 44 76 fd       	lea    -0x3(%rsi,%rsi,2),%rax
  40247d:	49 8d 44 00 7b       	lea    0x7b(%r8,%rax,1),%rax
  402482:	48 3d 00 20 00 00    	cmp    $0x2000,%rax
  402488:	76 72                	jbe    4024fc <submitr+0x295>
  40248a:	48 b8 45 72 72 6f 72 	movabs $0x52203a726f727245,%rax
  402491:	3a 20 52 
  402494:	48 89 03             	mov    %rax,(%rbx)
  402497:	48 b8 65 73 75 6c 74 	movabs $0x747320746c757365,%rax
  40249e:	20 73 74 
  4024a1:	48 89 43 08          	mov    %rax,0x8(%rbx)
  4024a5:	48 b8 72 69 6e 67 20 	movabs $0x6f6f7420676e6972,%rax
  4024ac:	74 6f 6f 
  4024af:	48 89 43 10          	mov    %rax,0x10(%rbx)
  4024b3:	48 b8 20 6c 61 72 67 	movabs $0x202e656772616c20,%rax
  4024ba:	65 2e 20 
  4024bd:	48 89 43 18          	mov    %rax,0x18(%rbx)
  4024c1:	48 b8 49 6e 63 72 65 	movabs $0x6573616572636e49,%rax
  4024c8:	61 73 65 
  4024cb:	48 89 43 20          	mov    %rax,0x20(%rbx)
  4024cf:	48 b8 20 53 55 42 4d 	movabs $0x5254494d42555320,%rax
  4024d6:	49 54 52 
  4024d9:	48 89 43 28          	mov    %rax,0x28(%rbx)
  4024dd:	48 b8 5f 4d 41 58 42 	movabs $0x46554258414d5f,%rax
  4024e4:	55 46 00 
  4024e7:	48 89 43 30          	mov    %rax,0x30(%rbx)
  4024eb:	89 ef                	mov    %ebp,%edi
  4024ed:	e8 be e7 ff ff       	callq  400cb0 <close@plt>
  4024f2:	b8 ff ff ff ff       	mov    $0xffffffff,%eax
  4024f7:	e9 74 04 00 00       	jmpq   402970 <submitr+0x709>
  4024fc:	48 8d b4 24 20 40 00 	lea    0x4020(%rsp),%rsi
  402503:	00 
  402504:	b9 00 04 00 00       	mov    $0x400,%ecx
  402509:	b8 00 00 00 00       	mov    $0x0,%eax
  40250e:	48 89 f7             	mov    %rsi,%rdi
  402511:	f3 48 ab             	rep stos %rax,%es:(%rdi)
  402514:	4c 89 ef             	mov    %r13,%rdi
  402517:	e8 0f fb ff ff       	callq  40202b <urlencode>
  40251c:	85 c0                	test   %eax,%eax
  40251e:	0f 89 8a 00 00 00    	jns    4025ae <submitr+0x347>
  402524:	48 b8 45 72 72 6f 72 	movabs $0x52203a726f727245,%rax
  40252b:	3a 20 52 
  40252e:	48 89 03             	mov    %rax,(%rbx)
  402531:	48 b8 65 73 75 6c 74 	movabs $0x747320746c757365,%rax
  402538:	20 73 74 
  40253b:	48 89 43 08          	mov    %rax,0x8(%rbx)
  40253f:	48 b8 72 69 6e 67 20 	movabs $0x6e6f6320676e6972,%rax
  402546:	63 6f 6e 
  402549:	48 89 43 10          	mov    %rax,0x10(%rbx)
  40254d:	48 b8 74 61 69 6e 73 	movabs $0x6e6120736e696174,%rax
  402554:	20 61 6e 
  402557:	48 89 43 18          	mov    %rax,0x18(%rbx)
  40255b:	48 b8 20 69 6c 6c 65 	movabs $0x6c6167656c6c6920,%rax
  402562:	67 61 6c 
  402565:	48 89 43 20          	mov    %rax,0x20(%rbx)
  402569:	48 b8 20 6f 72 20 75 	movabs $0x72706e7520726f20,%rax
  402570:	6e 70 72 
  402573:	48 89 43 28          	mov    %rax,0x28(%rbx)
  402577:	48 b8 69 6e 74 61 62 	movabs $0x20656c6261746e69,%rax
  40257e:	6c 65 20 
  402581:	48 89 43 30          	mov    %rax,0x30(%rbx)
  402585:	48 b8 63 68 61 72 61 	movabs $0x6574636172616863,%rax
  40258c:	63 74 65 
  40258f:	48 89 43 38          	mov    %rax,0x38(%rbx)
  402593:	66 c7 43 40 72 2e    	movw   $0x2e72,0x40(%rbx)
  402599:	c6 43 42 00          	movb   $0x0,0x42(%rbx)
  40259d:	89 ef                	mov    %ebp,%edi
  40259f:	e8 0c e7 ff ff       	callq  400cb0 <close@plt>
  4025a4:	b8 ff ff ff ff       	mov    $0xffffffff,%eax
  4025a9:	e9 c2 03 00 00       	jmpq   402970 <submitr+0x709>
  4025ae:	4d 89 e1             	mov    %r12,%r9
  4025b1:	4c 8d 84 24 20 40 00 	lea    0x4020(%rsp),%r8
  4025b8:	00 
  4025b9:	4c 89 f9             	mov    %r15,%rcx
  4025bc:	4c 89 f2             	mov    %r14,%rdx
  4025bf:	be 18 35 40 00       	mov    $0x403518,%esi
  4025c4:	48 8d bc 24 20 60 00 	lea    0x6020(%rsp),%rdi
  4025cb:	00 
  4025cc:	b8 00 00 00 00       	mov    $0x0,%eax
  4025d1:	e8 0a e8 ff ff       	callq  400de0 <sprintf@plt>
  4025d6:	48 8d bc 24 20 60 00 	lea    0x6020(%rsp),%rdi
  4025dd:	00 
  4025de:	b8 00 00 00 00       	mov    $0x0,%eax
  4025e3:	48 c7 c1 ff ff ff ff 	mov    $0xffffffffffffffff,%rcx
  4025ea:	f2 ae                	repnz scas %es:(%rdi),%al
  4025ec:	48 f7 d1             	not    %rcx
  4025ef:	48 8d 51 ff          	lea    -0x1(%rcx),%rdx
  4025f3:	48 8d b4 24 20 60 00 	lea    0x6020(%rsp),%rsi
  4025fa:	00 
  4025fb:	89 ef                	mov    %ebp,%edi
  4025fd:	e8 ff fa ff ff       	callq  402101 <rio_writen>
  402602:	48 85 c0             	test   %rax,%rax
  402605:	79 6e                	jns    402675 <submitr+0x40e>
  402607:	48 b8 45 72 72 6f 72 	movabs $0x43203a726f727245,%rax
  40260e:	3a 20 43 
  402611:	48 89 03             	mov    %rax,(%rbx)
  402614:	48 b8 6c 69 65 6e 74 	movabs $0x6e7520746e65696c,%rax
  40261b:	20 75 6e 
  40261e:	48 89 43 08          	mov    %rax,0x8(%rbx)
  402622:	48 b8 61 62 6c 65 20 	movabs $0x206f7420656c6261,%rax
  402629:	74 6f 20 
  40262c:	48 89 43 10          	mov    %rax,0x10(%rbx)
  402630:	48 b8 77 72 69 74 65 	movabs $0x6f74206574697277,%rax
  402637:	20 74 6f 
  40263a:	48 89 43 18          	mov    %rax,0x18(%rbx)
  40263e:	48 b8 20 74 68 65 20 	movabs $0x7365722065687420,%rax
  402645:	72 65 73 
  402648:	48 89 43 20          	mov    %rax,0x20(%rbx)
  40264c:	48 b8 75 6c 74 20 73 	movabs $0x7672657320746c75,%rax
  402653:	65 72 76 
  402656:	48 89 43 28          	mov    %rax,0x28(%rbx)
  40265a:	66 c7 43 30 65 72    	movw   $0x7265,0x30(%rbx)
  402660:	c6 43 32 00          	movb   $0x0,0x32(%rbx)
  402664:	89 ef                	mov    %ebp,%edi
  402666:	e8 45 e6 ff ff       	callq  400cb0 <close@plt>
  40266b:	b8 ff ff ff ff       	mov    $0xffffffff,%eax
  402670:	e9 fb 02 00 00       	jmpq   402970 <submitr+0x709>
  402675:	89 ee                	mov    %ebp,%esi
  402677:	48 8d bc 24 20 80 00 	lea    0x8020(%rsp),%rdi
  40267e:	00 
  40267f:	e8 6c f9 ff ff       	callq  401ff0 <rio_readinitb>
  402684:	ba 00 20 00 00       	mov    $0x2000,%edx
  402689:	48 8d b4 24 20 60 00 	lea    0x6020(%rsp),%rsi
  402690:	00 
  402691:	48 8d bc 24 20 80 00 	lea    0x8020(%rsp),%rdi
  402698:	00 
  402699:	e8 46 fb ff ff       	callq  4021e4 <rio_readlineb>
  40269e:	48 85 c0             	test   %rax,%rax
  4026a1:	7f 7d                	jg     402720 <submitr+0x4b9>
  4026a3:	48 b8 45 72 72 6f 72 	movabs $0x43203a726f727245,%rax
  4026aa:	3a 20 43 
  4026ad:	48 89 03             	mov    %rax,(%rbx)
  4026b0:	48 b8 6c 69 65 6e 74 	movabs $0x6e7520746e65696c,%rax
  4026b7:	20 75 6e 
  4026ba:	48 89 43 08          	mov    %rax,0x8(%rbx)
  4026be:	48 b8 61 62 6c 65 20 	movabs $0x206f7420656c6261,%rax
  4026c5:	74 6f 20 
  4026c8:	48 89 43 10          	mov    %rax,0x10(%rbx)
  4026cc:	48 b8 72 65 61 64 20 	movabs $0x7269662064616572,%rax
  4026d3:	66 69 72 
  4026d6:	48 89 43 18          	mov    %rax,0x18(%rbx)
  4026da:	48 b8 73 74 20 68 65 	movabs $0x6564616568207473,%rax
  4026e1:	61 64 65 
  4026e4:	48 89 43 20          	mov    %rax,0x20(%rbx)
  4026e8:	48 b8 72 20 66 72 6f 	movabs $0x72206d6f72662072,%rax
  4026ef:	6d 20 72 
  4026f2:	48 89 43 28          	mov    %rax,0x28(%rbx)
  4026f6:	48 b8 65 73 75 6c 74 	movabs $0x657320746c757365,%rax
  4026fd:	20 73 65 
  402700:	48 89 43 30          	mov    %rax,0x30(%rbx)
  402704:	c7 43 38 72 76 65 72 	movl   $0x72657672,0x38(%rbx)
  40270b:	c6 43 3c 00          	movb   $0x0,0x3c(%rbx)
  40270f:	89 ef                	mov    %ebp,%edi
  402711:	e8 9a e5 ff ff       	callq  400cb0 <close@plt>
  402716:	b8 ff ff ff ff       	mov    $0xffffffff,%eax
  40271b:	e9 50 02 00 00       	jmpq   402970 <submitr+0x709>
  402720:	4c 8d 44 24 10       	lea    0x10(%rsp),%r8
  402725:	48 8d 8c 24 1c 20 00 	lea    0x201c(%rsp),%rcx
  40272c:	00 
  40272d:	48 8d 94 24 20 20 00 	lea    0x2020(%rsp),%rdx
  402734:	00 
  402735:	be 8f 35 40 00       	mov    $0x40358f,%esi
  40273a:	48 8d bc 24 20 60 00 	lea    0x6020(%rsp),%rdi
  402741:	00 
  402742:	b8 00 00 00 00       	mov    $0x0,%eax
  402747:	e8 24 e6 ff ff       	callq  400d70 <__isoc99_sscanf@plt>
  40274c:	e9 98 00 00 00       	jmpq   4027e9 <submitr+0x582>
  402751:	ba 00 20 00 00       	mov    $0x2000,%edx
  402756:	48 8d b4 24 20 60 00 	lea    0x6020(%rsp),%rsi
  40275d:	00 
  40275e:	48 8d bc 24 20 80 00 	lea    0x8020(%rsp),%rdi
  402765:	00 
  402766:	e8 79 fa ff ff       	callq  4021e4 <rio_readlineb>
  40276b:	48 85 c0             	test   %rax,%rax
  40276e:	7f 79                	jg     4027e9 <submitr+0x582>
  402770:	48 b8 45 72 72 6f 72 	movabs $0x43203a726f727245,%rax
  402777:	3a 20 43 
  40277a:	48 89 03             	mov    %rax,(%rbx)
  40277d:	48 b8 6c 69 65 6e 74 	movabs $0x6e7520746e65696c,%rax
  402784:	20 75 6e 
  402787:	48 89 43 08          	mov    %rax,0x8(%rbx)
  40278b:	48 b8 61 62 6c 65 20 	movabs $0x206f7420656c6261,%rax
  402792:	74 6f 20 
  402795:	48 89 43 10          	mov    %rax,0x10(%rbx)
  402799:	48 b8 72 65 61 64 20 	movabs $0x6165682064616572,%rax
  4027a0:	68 65 61 
  4027a3:	48 89 43 18          	mov    %rax,0x18(%rbx)
  4027a7:	48 b8 64 65 72 73 20 	movabs $0x6f72662073726564,%rax
  4027ae:	66 72 6f 
  4027b1:	48 89 43 20          	mov    %rax,0x20(%rbx)
  4027b5:	48 b8 6d 20 74 68 65 	movabs $0x657220656874206d,%rax
  4027bc:	20 72 65 
  4027bf:	48 89 43 28          	mov    %rax,0x28(%rbx)
  4027c3:	48 b8 73 75 6c 74 20 	movabs $0x72657320746c7573,%rax
  4027ca:	73 65 72 
  4027cd:	48 89 43 30          	mov    %rax,0x30(%rbx)
  4027d1:	c7 43 38 76 65 72 00 	movl   $0x726576,0x38(%rbx)
  4027d8:	89 ef                	mov    %ebp,%edi
  4027da:	e8 d1 e4 ff ff       	callq  400cb0 <close@plt>
  4027df:	b8 ff ff ff ff       	mov    $0xffffffff,%eax
  4027e4:	e9 87 01 00 00       	jmpq   402970 <submitr+0x709>
  4027e9:	0f b6 84 24 20 60 00 	movzbl 0x6020(%rsp),%eax
  4027f0:	00 
  4027f1:	83 e8 0d             	sub    $0xd,%eax
  4027f4:	75 15                	jne    40280b <submitr+0x5a4>
  4027f6:	0f b6 84 24 21 60 00 	movzbl 0x6021(%rsp),%eax
  4027fd:	00 
  4027fe:	83 e8 0a             	sub    $0xa,%eax
  402801:	75 08                	jne    40280b <submitr+0x5a4>
  402803:	0f b6 84 24 22 60 00 	movzbl 0x6022(%rsp),%eax
  40280a:	00 
  40280b:	85 c0                	test   %eax,%eax
  40280d:	0f 85 3e ff ff ff    	jne    402751 <submitr+0x4ea>
  402813:	ba 00 20 00 00       	mov    $0x2000,%edx
  402818:	48 8d b4 24 20 60 00 	lea    0x6020(%rsp),%rsi
  40281f:	00 
  402820:	48 8d bc 24 20 80 00 	lea    0x8020(%rsp),%rdi
  402827:	00 
  402828:	e8 b7 f9 ff ff       	callq  4021e4 <rio_readlineb>
  40282d:	48 85 c0             	test   %rax,%rax
  402830:	0f 8f 83 00 00 00    	jg     4028b9 <submitr+0x652>
  402836:	48 b8 45 72 72 6f 72 	movabs $0x43203a726f727245,%rax
  40283d:	3a 20 43 
  402840:	48 89 03             	mov    %rax,(%rbx)
  402843:	48 b8 6c 69 65 6e 74 	movabs $0x6e7520746e65696c,%rax
  40284a:	20 75 6e 
  40284d:	48 89 43 08          	mov    %rax,0x8(%rbx)
  402851:	48 b8 61 62 6c 65 20 	movabs $0x206f7420656c6261,%rax
  402858:	74 6f 20 
  40285b:	48 89 43 10          	mov    %rax,0x10(%rbx)
  40285f:	48 b8 72 65 61 64 20 	movabs $0x6174732064616572,%rax
  402866:	73 74 61 
  402869:	48 89 43 18          	mov    %rax,0x18(%rbx)
  40286d:	48 b8 74 75 73 20 6d 	movabs $0x7373656d20737574,%rax
  402874:	65 73 73 
  402877:	48 89 43 20          	mov    %rax,0x20(%rbx)
  40287b:	48 b8 61 67 65 20 66 	movabs $0x6d6f726620656761,%rax
  402882:	72 6f 6d 
  402885:	48 89 43 28          	mov    %rax,0x28(%rbx)
  402889:	48 b8 20 72 65 73 75 	movabs $0x20746c7573657220,%rax
  402890:	6c 74 20 
  402893:	48 89 43 30          	mov    %rax,0x30(%rbx)
  402897:	c7 43 38 73 65 72 76 	movl   $0x76726573,0x38(%rbx)
  40289e:	66 c7 43 3c 65 72    	movw   $0x7265,0x3c(%rbx)
  4028a4:	c6 43 3e 00          	movb   $0x0,0x3e(%rbx)
  4028a8:	89 ef                	mov    %ebp,%edi
  4028aa:	e8 01 e4 ff ff       	callq  400cb0 <close@plt>
  4028af:	b8 ff ff ff ff       	mov    $0xffffffff,%eax
  4028b4:	e9 b7 00 00 00       	jmpq   402970 <submitr+0x709>
  4028b9:	8b 94 24 1c 20 00 00 	mov    0x201c(%rsp),%edx
  4028c0:	81 fa c8 00 00 00    	cmp    $0xc8,%edx
  4028c6:	74 28                	je     4028f0 <submitr+0x689>
  4028c8:	48 8d 4c 24 10       	lea    0x10(%rsp),%rcx
  4028cd:	be 58 35 40 00       	mov    $0x403558,%esi
  4028d2:	48 89 df             	mov    %rbx,%rdi
  4028d5:	b8 00 00 00 00       	mov    $0x0,%eax
  4028da:	e8 01 e5 ff ff       	callq  400de0 <sprintf@plt>
  4028df:	89 ef                	mov    %ebp,%edi
  4028e1:	e8 ca e3 ff ff       	callq  400cb0 <close@plt>
  4028e6:	b8 ff ff ff ff       	mov    $0xffffffff,%eax
  4028eb:	e9 80 00 00 00       	jmpq   402970 <submitr+0x709>
  4028f0:	48 8d b4 24 20 60 00 	lea    0x6020(%rsp),%rsi
  4028f7:	00 
  4028f8:	48 89 df             	mov    %rbx,%rdi
  4028fb:	e8 40 e3 ff ff       	callq  400c40 <strcpy@plt>
  402900:	89 ef                	mov    %ebp,%edi
  402902:	e8 a9 e3 ff ff       	callq  400cb0 <close@plt>
  402907:	0f b6 03             	movzbl (%rbx),%eax
  40290a:	83 e8 4f             	sub    $0x4f,%eax
  40290d:	75 18                	jne    402927 <submitr+0x6c0>
  40290f:	0f b6 53 01          	movzbl 0x1(%rbx),%edx
  402913:	83 ea 4b             	sub    $0x4b,%edx
  402916:	75 11                	jne    402929 <submitr+0x6c2>
  402918:	0f b6 53 02          	movzbl 0x2(%rbx),%edx
  40291c:	83 ea 0a             	sub    $0xa,%edx
  40291f:	75 08                	jne    402929 <submitr+0x6c2>
  402921:	0f b6 53 03          	movzbl 0x3(%rbx),%edx
  402925:	eb 02                	jmp    402929 <submitr+0x6c2>
  402927:	89 c2                	mov    %eax,%edx
  402929:	85 d2                	test   %edx,%edx
  40292b:	74 30                	je     40295d <submitr+0x6f6>
  40292d:	bf a0 35 40 00       	mov    $0x4035a0,%edi
  402932:	b9 05 00 00 00       	mov    $0x5,%ecx
  402937:	48 89 de             	mov    %rbx,%rsi
  40293a:	f3 a6                	repz cmpsb %es:(%rdi),%ds:(%rsi)
  40293c:	0f 97 c1             	seta   %cl
  40293f:	0f 92 c2             	setb   %dl
  402942:	38 d1                	cmp    %dl,%cl
  402944:	74 1e                	je     402964 <submitr+0x6fd>
  402946:	85 c0                	test   %eax,%eax
  402948:	75 0d                	jne    402957 <submitr+0x6f0>
  40294a:	0f b6 43 01          	movzbl 0x1(%rbx),%eax
  40294e:	83 e8 4b             	sub    $0x4b,%eax
  402951:	75 04                	jne    402957 <submitr+0x6f0>
  402953:	0f b6 43 02          	movzbl 0x2(%rbx),%eax
  402957:	85 c0                	test   %eax,%eax
  402959:	75 10                	jne    40296b <submitr+0x704>
  40295b:	eb 13                	jmp    402970 <submitr+0x709>
  40295d:	b8 00 00 00 00       	mov    $0x0,%eax
  402962:	eb 0c                	jmp    402970 <submitr+0x709>
  402964:	b8 00 00 00 00       	mov    $0x0,%eax
  402969:	eb 05                	jmp    402970 <submitr+0x709>
  40296b:	b8 ff ff ff ff       	mov    $0xffffffff,%eax
  402970:	48 81 c4 48 a0 00 00 	add    $0xa048,%rsp
  402977:	5b                   	pop    %rbx
  402978:	5d                   	pop    %rbp
  402979:	41 5c                	pop    %r12
  40297b:	41 5d                	pop    %r13
  40297d:	41 5e                	pop    %r14
  40297f:	41 5f                	pop    %r15
  402981:	c3                   	retq   

0000000000402982 <init_timeout>:
  402982:	53                   	push   %rbx
  402983:	89 fb                	mov    %edi,%ebx
  402985:	85 ff                	test   %edi,%edi
  402987:	74 1f                	je     4029a8 <init_timeout+0x26>
  402989:	85 ff                	test   %edi,%edi
  40298b:	79 05                	jns    402992 <init_timeout+0x10>
  40298d:	bb 00 00 00 00       	mov    $0x0,%ebx
  402992:	be 02 20 40 00       	mov    $0x402002,%esi
  402997:	bf 0e 00 00 00       	mov    $0xe,%edi
  40299c:	e8 3f e3 ff ff       	callq  400ce0 <signal@plt>
  4029a1:	89 df                	mov    %ebx,%edi
  4029a3:	e8 f8 e2 ff ff       	callq  400ca0 <alarm@plt>
  4029a8:	5b                   	pop    %rbx
  4029a9:	c3                   	retq   

00000000004029aa <init_driver>:
  4029aa:	55                   	push   %rbp
  4029ab:	53                   	push   %rbx
  4029ac:	48 83 ec 18          	sub    $0x18,%rsp
  4029b0:	48 89 fd             	mov    %rdi,%rbp
  4029b3:	be 01 00 00 00       	mov    $0x1,%esi
  4029b8:	bf 0d 00 00 00       	mov    $0xd,%edi
  4029bd:	e8 1e e3 ff ff       	callq  400ce0 <signal@plt>
  4029c2:	be 01 00 00 00       	mov    $0x1,%esi
  4029c7:	bf 1d 00 00 00       	mov    $0x1d,%edi
  4029cc:	e8 0f e3 ff ff       	callq  400ce0 <signal@plt>
  4029d1:	be 01 00 00 00       	mov    $0x1,%esi
  4029d6:	bf 1d 00 00 00       	mov    $0x1d,%edi
  4029db:	e8 00 e3 ff ff       	callq  400ce0 <signal@plt>
  4029e0:	ba 00 00 00 00       	mov    $0x0,%edx
  4029e5:	be 01 00 00 00       	mov    $0x1,%esi
  4029ea:	bf 02 00 00 00       	mov    $0x2,%edi
  4029ef:	e8 1c e4 ff ff       	callq  400e10 <socket@plt>
  4029f4:	89 c3                	mov    %eax,%ebx
  4029f6:	85 c0                	test   %eax,%eax
  4029f8:	79 4f                	jns    402a49 <init_driver+0x9f>
  4029fa:	48 b8 45 72 72 6f 72 	movabs $0x43203a726f727245,%rax
  402a01:	3a 20 43 
  402a04:	48 89 45 00          	mov    %rax,0x0(%rbp)
  402a08:	48 b8 6c 69 65 6e 74 	movabs $0x6e7520746e65696c,%rax
  402a0f:	20 75 6e 
  402a12:	48 89 45 08          	mov    %rax,0x8(%rbp)
  402a16:	48 b8 61 62 6c 65 20 	movabs $0x206f7420656c6261,%rax
  402a1d:	74 6f 20 
  402a20:	48 89 45 10          	mov    %rax,0x10(%rbp)
  402a24:	48 b8 63 72 65 61 74 	movabs $0x7320657461657263,%rax
  402a2b:	65 20 73 
  402a2e:	48 89 45 18          	mov    %rax,0x18(%rbp)
  402a32:	c7 45 20 6f 63 6b 65 	movl   $0x656b636f,0x20(%rbp)
  402a39:	66 c7 45 24 74 00    	movw   $0x74,0x24(%rbp)
  402a3f:	b8 ff ff ff ff       	mov    $0xffffffff,%eax
  402a44:	e9 23 01 00 00       	jmpq   402b6c <init_driver+0x1c2>
  402a49:	bf e8 2f 40 00       	mov    $0x402fe8,%edi
  402a4e:	e8 9d e2 ff ff       	callq  400cf0 <gethostbyname@plt>
  402a53:	48 85 c0             	test   %rax,%rax
  402a56:	75 68                	jne    402ac0 <init_driver+0x116>
  402a58:	48 b8 45 72 72 6f 72 	movabs $0x44203a726f727245,%rax
  402a5f:	3a 20 44 
  402a62:	48 89 45 00          	mov    %rax,0x0(%rbp)
  402a66:	48 b8 4e 53 20 69 73 	movabs $0x6e7520736920534e,%rax
  402a6d:	20 75 6e 
  402a70:	48 89 45 08          	mov    %rax,0x8(%rbp)
  402a74:	48 b8 61 62 6c 65 20 	movabs $0x206f7420656c6261,%rax
  402a7b:	74 6f 20 
  402a7e:	48 89 45 10          	mov    %rax,0x10(%rbp)
  402a82:	48 b8 72 65 73 6f 6c 	movabs $0x2065766c6f736572,%rax
  402a89:	76 65 20 
  402a8c:	48 89 45 18          	mov    %rax,0x18(%rbp)
  402a90:	48 b8 73 65 72 76 65 	movabs $0x6120726576726573,%rax
  402a97:	72 20 61 
  402a9a:	48 89 45 20          	mov    %rax,0x20(%rbp)
  402a9e:	c7 45 28 64 64 72 65 	movl   $0x65726464,0x28(%rbp)
  402aa5:	66 c7 45 2c 73 73    	movw   $0x7373,0x2c(%rbp)
  402aab:	c6 45 2e 00          	movb   $0x0,0x2e(%rbp)
  402aaf:	89 df                	mov    %ebx,%edi
  402ab1:	e8 fa e1 ff ff       	callq  400cb0 <close@plt>
  402ab6:	b8 ff ff ff ff       	mov    $0xffffffff,%eax
  402abb:	e9 ac 00 00 00       	jmpq   402b6c <init_driver+0x1c2>
  402ac0:	48 c7 04 24 00 00 00 	movq   $0x0,(%rsp)
  402ac7:	00 
  402ac8:	48 c7 44 24 08 00 00 	movq   $0x0,0x8(%rsp)
  402acf:	00 00 
  402ad1:	66 c7 04 24 02 00    	movw   $0x2,(%rsp)
  402ad7:	48 8b 48 18          	mov    0x18(%rax),%rcx
  402adb:	48 63 50 14          	movslq 0x14(%rax),%rdx
  402adf:	48 8d 74 24 04       	lea    0x4(%rsp),%rsi
  402ae4:	48 8b 39             	mov    (%rcx),%rdi
  402ae7:	e8 a4 e2 ff ff       	callq  400d90 <bcopy@plt>
  402aec:	66 c7 44 24 02 47 26 	movw   $0x2647,0x2(%rsp)
  402af3:	ba 10 00 00 00       	mov    $0x10,%edx
  402af8:	48 89 e6             	mov    %rsp,%rsi
  402afb:	89 df                	mov    %ebx,%edi
  402afd:	e8 fe e2 ff ff       	callq  400e00 <connect@plt>
  402b02:	85 c0                	test   %eax,%eax
  402b04:	79 50                	jns    402b56 <init_driver+0x1ac>
  402b06:	48 b8 45 72 72 6f 72 	movabs $0x55203a726f727245,%rax
  402b0d:	3a 20 55 
  402b10:	48 89 45 00          	mov    %rax,0x0(%rbp)
  402b14:	48 b8 6e 61 62 6c 65 	movabs $0x6f7420656c62616e,%rax
  402b1b:	20 74 6f 
  402b1e:	48 89 45 08          	mov    %rax,0x8(%rbp)
  402b22:	48 b8 20 63 6f 6e 6e 	movabs $0x7463656e6e6f6320,%rax
  402b29:	65 63 74 
  402b2c:	48 89 45 10          	mov    %rax,0x10(%rbp)
  402b30:	48 b8 20 74 6f 20 73 	movabs $0x76726573206f7420,%rax
  402b37:	65 72 76 
  402b3a:	48 89 45 18          	mov    %rax,0x18(%rbp)
  402b3e:	66 c7 45 20 65 72    	movw   $0x7265,0x20(%rbp)
  402b44:	c6 45 22 00          	movb   $0x0,0x22(%rbp)
  402b48:	89 df                	mov    %ebx,%edi
  402b4a:	e8 61 e1 ff ff       	callq  400cb0 <close@plt>
  402b4f:	b8 ff ff ff ff       	mov    $0xffffffff,%eax
  402b54:	eb 16                	jmp    402b6c <init_driver+0x1c2>
  402b56:	89 df                	mov    %ebx,%edi
  402b58:	e8 53 e1 ff ff       	callq  400cb0 <close@plt>
  402b5d:	66 c7 45 00 4f 4b    	movw   $0x4b4f,0x0(%rbp)
  402b63:	c6 45 02 00          	movb   $0x0,0x2(%rbp)
  402b67:	b8 00 00 00 00       	mov    $0x0,%eax
  402b6c:	48 83 c4 18          	add    $0x18,%rsp
  402b70:	5b                   	pop    %rbx
  402b71:	5d                   	pop    %rbp
  402b72:	c3                   	retq   

0000000000402b73 <driver_post>:
  402b73:	53                   	push   %rbx
  402b74:	48 83 ec 10          	sub    $0x10,%rsp
  402b78:	4c 89 cb             	mov    %r9,%rbx
  402b7b:	45 85 c0             	test   %r8d,%r8d
  402b7e:	74 22                	je     402ba2 <driver_post+0x2f>
  402b80:	48 89 ce             	mov    %rcx,%rsi
  402b83:	bf a5 35 40 00       	mov    $0x4035a5,%edi
  402b88:	b8 00 00 00 00       	mov    $0x0,%eax
  402b8d:	e8 ee e0 ff ff       	callq  400c80 <printf@plt>
  402b92:	66 c7 03 4f 4b       	movw   $0x4b4f,(%rbx)
  402b97:	c6 43 02 00          	movb   $0x0,0x2(%rbx)
  402b9b:	b8 00 00 00 00       	mov    $0x0,%eax
  402ba0:	eb 39                	jmp    402bdb <driver_post+0x68>
  402ba2:	48 85 ff             	test   %rdi,%rdi
  402ba5:	74 26                	je     402bcd <driver_post+0x5a>
  402ba7:	80 3f 00             	cmpb   $0x0,(%rdi)
  402baa:	74 21                	je     402bcd <driver_post+0x5a>
  402bac:	4c 89 0c 24          	mov    %r9,(%rsp)
  402bb0:	49 89 c9             	mov    %rcx,%r9
  402bb3:	49 89 d0             	mov    %rdx,%r8
  402bb6:	48 89 f9             	mov    %rdi,%rcx
  402bb9:	48 89 f2             	mov    %rsi,%rdx
  402bbc:	be 26 47 00 00       	mov    $0x4726,%esi
  402bc1:	bf e8 2f 40 00       	mov    $0x402fe8,%edi
  402bc6:	e8 9c f6 ff ff       	callq  402267 <submitr>
  402bcb:	eb 0e                	jmp    402bdb <driver_post+0x68>
  402bcd:	66 c7 03 4f 4b       	movw   $0x4b4f,(%rbx)
  402bd2:	c6 43 02 00          	movb   $0x0,0x2(%rbx)
  402bd6:	b8 00 00 00 00       	mov    $0x0,%eax
  402bdb:	48 83 c4 10          	add    $0x10,%rsp
  402bdf:	5b                   	pop    %rbx
  402be0:	c3                   	retq   

0000000000402be1 <check>:
  402be1:	89 f8                	mov    %edi,%eax
  402be3:	c1 e8 1c             	shr    $0x1c,%eax
  402be6:	85 c0                	test   %eax,%eax
  402be8:	74 1d                	je     402c07 <check+0x26>
  402bea:	b9 00 00 00 00       	mov    $0x0,%ecx
  402bef:	eb 0b                	jmp    402bfc <check+0x1b>
  402bf1:	89 f8                	mov    %edi,%eax
  402bf3:	d3 e8                	shr    %cl,%eax
  402bf5:	3c 0a                	cmp    $0xa,%al
  402bf7:	74 14                	je     402c0d <check+0x2c>
  402bf9:	83 c1 08             	add    $0x8,%ecx
  402bfc:	83 f9 1f             	cmp    $0x1f,%ecx
  402bff:	7e f0                	jle    402bf1 <check+0x10>
  402c01:	b8 01 00 00 00       	mov    $0x1,%eax
  402c06:	c3                   	retq   
  402c07:	b8 00 00 00 00       	mov    $0x0,%eax
  402c0c:	c3                   	retq   
  402c0d:	b8 00 00 00 00       	mov    $0x0,%eax
  402c12:	c3                   	retq   

0000000000402c13 <gencookie>:
  402c13:	53                   	push   %rbx
  402c14:	83 c7 01             	add    $0x1,%edi
  402c17:	e8 04 e0 ff ff       	callq  400c20 <srandom@plt>
  402c1c:	e8 2f e1 ff ff       	callq  400d50 <random@plt>
  402c21:	89 c3                	mov    %eax,%ebx
  402c23:	89 c7                	mov    %eax,%edi
  402c25:	e8 b7 ff ff ff       	callq  402be1 <check>
  402c2a:	85 c0                	test   %eax,%eax
  402c2c:	74 ee                	je     402c1c <gencookie+0x9>
  402c2e:	89 d8                	mov    %ebx,%eax
  402c30:	5b                   	pop    %rbx
  402c31:	c3                   	retq   
  402c32:	66 2e 0f 1f 84 00 00 	nopw   %cs:0x0(%rax,%rax,1)
  402c39:	00 00 00 
  402c3c:	0f 1f 40 00          	nopl   0x0(%rax)

0000000000402c40 <__libc_csu_init>:
  402c40:	41 57                	push   %r15
  402c42:	41 89 ff             	mov    %edi,%r15d
  402c45:	41 56                	push   %r14
  402c47:	49 89 f6             	mov    %rsi,%r14
  402c4a:	41 55                	push   %r13
  402c4c:	49 89 d5             	mov    %rdx,%r13
  402c4f:	41 54                	push   %r12
  402c51:	4c 8d 25 b8 21 20 00 	lea    0x2021b8(%rip),%r12        # 604e10 <__frame_dummy_init_array_entry>
  402c58:	55                   	push   %rbp
  402c59:	48 8d 2d b8 21 20 00 	lea    0x2021b8(%rip),%rbp        # 604e18 <__init_array_end>
  402c60:	53                   	push   %rbx
  402c61:	4c 29 e5             	sub    %r12,%rbp
  402c64:	31 db                	xor    %ebx,%ebx
  402c66:	48 c1 fd 03          	sar    $0x3,%rbp
  402c6a:	48 83 ec 08          	sub    $0x8,%rsp
  402c6e:	e8 55 df ff ff       	callq  400bc8 <_init>
  402c73:	48 85 ed             	test   %rbp,%rbp
  402c76:	74 1e                	je     402c96 <__libc_csu_init+0x56>
  402c78:	0f 1f 84 00 00 00 00 	nopl   0x0(%rax,%rax,1)
  402c7f:	00 
  402c80:	4c 89 ea             	mov    %r13,%rdx
  402c83:	4c 89 f6             	mov    %r14,%rsi
  402c86:	44 89 ff             	mov    %r15d,%edi
  402c89:	41 ff 14 dc          	callq  *(%r12,%rbx,8)
  402c8d:	48 83 c3 01          	add    $0x1,%rbx
  402c91:	48 39 eb             	cmp    %rbp,%rbx
  402c94:	75 ea                	jne    402c80 <__libc_csu_init+0x40>
  402c96:	48 83 c4 08          	add    $0x8,%rsp
  402c9a:	5b                   	pop    %rbx
  402c9b:	5d                   	pop    %rbp
  402c9c:	41 5c                	pop    %r12
  402c9e:	41 5d                	pop    %r13
  402ca0:	41 5e                	pop    %r14
  402ca2:	41 5f                	pop    %r15
  402ca4:	c3                   	retq   
  402ca5:	90                   	nop
  402ca6:	66 2e 0f 1f 84 00 00 	nopw   %cs:0x0(%rax,%rax,1)
  402cad:	00 00 00 

0000000000402cb0 <__libc_csu_fini>:
  402cb0:	f3 c3                	repz retq 

Disassembly of section .fini:

0000000000402cb4 <_fini>:
  402cb4:	48 83 ec 08          	sub    $0x8,%rsp
  402cb8:	48 83 c4 08          	add    $0x8,%rsp
  402cbc:	c3                   	retq   
